

Microchip MPLAB XC8 Assembler V2.30 build 20200825195618 
                                                                                               Tue Oct 06 11:03:52 2020

Microchip MPLAB XC8 C Compiler v2.30 (Free license) build 20200825195618 Og1 
     1                           	processor	16F1938
     2                           	pagewidth 120
     3                           	opt	flic
     4                           	psect	stringtext1,global,class=STRCODE,delta=2,noexec
     5                           	psect	cinit,global,class=CODE,merge=1,delta=2
     6                           	psect	bssCOMMON,global,class=COMMON,space=1,delta=1,noexec
     7                           	psect	bssBANK0,global,class=BANK0,space=1,delta=1,noexec
     8                           	psect	clrtext,global,class=CODE,delta=2
     9                           	psect	cstackCOMMON,global,class=COMMON,space=1,delta=1,noexec
    10                           	psect	cstackBANK0,global,class=BANK0,space=1,delta=1,noexec
    11                           	psect	maintext,global,class=CODE,merge=1,split=1,delta=2
    12                           	psect	text1,local,class=CODE,merge=1,delta=2
    13                           	psect	text2,local,class=CODE,merge=1,delta=2
    14                           	psect	text3,local,class=CODE,merge=1,delta=2
    15                           	psect	text4,local,class=CODE,merge=1,delta=2
    16                           	psect	text5,local,class=CODE,merge=1,delta=2
    17                           	psect	text6,local,class=CODE,merge=1,delta=2
    18                           	psect	text7,local,class=CODE,merge=1,delta=2
    19                           	psect	text8,local,class=CODE,merge=1,delta=2
    20                           	psect	text9,local,class=CODE,merge=1,delta=2
    21                           	psect	text10,local,class=CODE,merge=1,delta=2
    22                           	psect	text11,local,class=CODE,merge=1,delta=2
    23                           	psect	text12,local,class=CODE,merge=1,delta=2
    24                           	psect	text13,local,class=CODE,merge=1,delta=2
    25                           	psect	text14,local,class=CODE,merge=1,delta=2
    26                           	psect	text15,local,class=CODE,merge=1,delta=2
    27                           	psect	text16,local,class=CODE,merge=1,delta=2
    28                           	psect	text17,local,class=CODE,merge=1,delta=2
    29                           	psect	text18,local,class=CODE,merge=1,delta=2
    30                           	psect	text19,local,class=CODE,merge=1,delta=2
    31                           	psect	text20,local,class=CODE,merge=1,delta=2
    32                           	psect	text21,local,class=CODE,merge=1,delta=2
    33                           	psect	intentry,global,class=CODE,delta=2
    34                           	psect	text23,local,class=CODE,merge=1,delta=2
    35                           	psect	text24,local,class=CODE,merge=1,delta=2
    36                           	psect	text25,local,class=CODE,merge=1,delta=2
    37                           	psect	text26,local,class=CODE,merge=1,delta=2
    38                           	psect	config,global,abs,ovrld,class=CONFIG,space=4,delta=2,noexec
    39                           	dabs	1,0x7E,2
    40  0000                     
    41                           ; Version 2.20
    42                           ; Generated 12/02/2020 GMT
    43                           ; 
    44                           ; Copyright © 2020, Microchip Technology Inc. and its subsidiaries ("Microchip")
    45                           ; All rights reserved.
    46                           ; 
    47                           ; This software is developed by Microchip Technology Inc. and its subsidiaries ("Microch
      +                          ip").
    48                           ; 
    49                           ; Redistribution and use in source and binary forms, with or without modification, are
    50                           ; permitted provided that the following conditions are met:
    51                           ; 
    52                           ;     1. Redistributions of source code must retain the above copyright notice, this lis
      +                          t of
    53                           ;        conditions and the following disclaimer.
    54                           ; 
    55                           ;     2. Redistributions in binary form must reproduce the above copyright notice, this 
      +                          list
    56                           ;        of conditions and the following disclaimer in the documentation and/or other
    57                           ;        materials provided with the distribution.
    58                           ; 
    59                           ;     3. Microchip's name may not be used to endorse or promote products derived from th
      +                          is
    60                           ;        software without specific prior written permission.
    61                           ; 
    62                           ; THIS SOFTWARE IS PROVIDED BY MICROCHIP "AS IS" AND ANY EXPRESS OR IMPLIED WARRANTIES,
    63                           ; INCLUDING, BUT NOT LIMITED TO, THE IMPLIED WARRANTIES OF MERCHANTABILITY AND FITNESS F
      +                          OR
    64                           ; PURPOSE ARE DISCLAIMED.  IN NO EVENT SHALL MICROCHIP BE LIABLE FOR ANY DIRECT, INDIREC
      +                          T,
    65                           ; INCIDENTAL, SPECIAL, EXEMPLARY, OR CONSEQUENTIAL DAMAGES (INCLUDING BUT NOT LIMITED TO
    66                           ; PROCUREMENT OF SUBSTITUTE GOODS OR SERVICES; LOSS OF USE, DATA OR PROFITS; OR BUSINESS
    67                           ; INTERRUPTION) HOWSOEVER CAUSED AND ON ANY THEORY OF LIABILITY, WHETHER IN CONTRACT, ST
      +                          RICT
    68                           ; LIABILITY, OR TORT (INCLUDING NEGLIGENCE OR OTHERWISE) ARISING IN ANY WAY OUT OF THE U
      +                          SE OF
    69                           ; THIS SOFTWARE, EVEN IF ADVISED OF THE POSSIBILITY OF SUCH DAMAGE.
    70                           ; 
    71                           ; 
    72                           ; Code-generator required, PIC16F1938 Definitions
    73                           ; 
    74                           ; SFR Addresses
    75  0000                     	;# 
    76  0001                     	;# 
    77  0002                     	;# 
    78  0003                     	;# 
    79  0004                     	;# 
    80  0005                     	;# 
    81  0006                     	;# 
    82  0007                     	;# 
    83  0008                     	;# 
    84  0009                     	;# 
    85  000A                     	;# 
    86  000B                     	;# 
    87  000C                     	;# 
    88  000D                     	;# 
    89  000E                     	;# 
    90  0010                     	;# 
    91  0011                     	;# 
    92  0012                     	;# 
    93  0013                     	;# 
    94  0015                     	;# 
    95  0016                     	;# 
    96  0016                     	;# 
    97  0017                     	;# 
    98  0018                     	;# 
    99  0019                     	;# 
   100  001A                     	;# 
   101  001B                     	;# 
   102  001C                     	;# 
   103  001E                     	;# 
   104  001F                     	;# 
   105  008C                     	;# 
   106  008D                     	;# 
   107  008E                     	;# 
   108  0090                     	;# 
   109  0091                     	;# 
   110  0092                     	;# 
   111  0093                     	;# 
   112  0095                     	;# 
   113  0096                     	;# 
   114  0097                     	;# 
   115  0098                     	;# 
   116  0099                     	;# 
   117  009A                     	;# 
   118  009B                     	;# 
   119  009B                     	;# 
   120  009C                     	;# 
   121  009D                     	;# 
   122  009E                     	;# 
   123  010C                     	;# 
   124  010D                     	;# 
   125  010E                     	;# 
   126  0110                     	;# 
   127  0111                     	;# 
   128  0112                     	;# 
   129  0113                     	;# 
   130  0114                     	;# 
   131  0115                     	;# 
   132  0116                     	;# 
   133  0117                     	;# 
   134  0118                     	;# 
   135  0119                     	;# 
   136  011A                     	;# 
   137  011B                     	;# 
   138  011D                     	;# 
   139  018C                     	;# 
   140  018D                     	;# 
   141  0191                     	;# 
   142  0191                     	;# 
   143  0192                     	;# 
   144  0193                     	;# 
   145  0193                     	;# 
   146  0193                     	;# 
   147  0194                     	;# 
   148  0195                     	;# 
   149  0196                     	;# 
   150  0199                     	;# 
   151  019A                     	;# 
   152  019B                     	;# 
   153  019B                     	;# 
   154  019B                     	;# 
   155  019B                     	;# 
   156  019C                     	;# 
   157  019C                     	;# 
   158  019D                     	;# 
   159  019E                     	;# 
   160  019F                     	;# 
   161  020D                     	;# 
   162  0210                     	;# 
   163  0211                     	;# 
   164  0212                     	;# 
   165  0213                     	;# 
   166  0214                     	;# 
   167  0215                     	;# 
   168  0215                     	;# 
   169  0216                     	;# 
   170  0217                     	;# 
   171  0291                     	;# 
   172  0291                     	;# 
   173  0292                     	;# 
   174  0293                     	;# 
   175  0294                     	;# 
   176  0295                     	;# 
   177  0295                     	;# 
   178  0296                     	;# 
   179  0298                     	;# 
   180  0298                     	;# 
   181  0299                     	;# 
   182  029A                     	;# 
   183  029B                     	;# 
   184  029C                     	;# 
   185  029C                     	;# 
   186  029D                     	;# 
   187  029E                     	;# 
   188  029F                     	;# 
   189  0311                     	;# 
   190  0311                     	;# 
   191  0312                     	;# 
   192  0313                     	;# 
   193  0314                     	;# 
   194  0315                     	;# 
   195  0315                     	;# 
   196  0316                     	;# 
   197  0318                     	;# 
   198  0318                     	;# 
   199  0319                     	;# 
   200  031A                     	;# 
   201  031C                     	;# 
   202  031C                     	;# 
   203  031D                     	;# 
   204  031E                     	;# 
   205  0394                     	;# 
   206  0395                     	;# 
   207  0396                     	;# 
   208  0415                     	;# 
   209  0416                     	;# 
   210  0417                     	;# 
   211  041C                     	;# 
   212  041D                     	;# 
   213  041E                     	;# 
   214  0791                     	;# 
   215  0792                     	;# 
   216  0793                     	;# 
   217  0794                     	;# 
   218  0795                     	;# 
   219  0798                     	;# 
   220  0799                     	;# 
   221  07A0                     	;# 
   222  07A1                     	;# 
   223  07A3                     	;# 
   224  07A4                     	;# 
   225  07A6                     	;# 
   226  07A7                     	;# 
   227  07A9                     	;# 
   228  07AA                     	;# 
   229  0FE4                     	;# 
   230  0FE5                     	;# 
   231  0FE6                     	;# 
   232  0FE7                     	;# 
   233  0FE8                     	;# 
   234  0FE9                     	;# 
   235  0FEA                     	;# 
   236  0FEB                     	;# 
   237  0FED                     	;# 
   238  0FEE                     	;# 
   239  0FEF                     	;# 
   240  0000                     	;# 
   241  0001                     	;# 
   242  0002                     	;# 
   243  0003                     	;# 
   244  0004                     	;# 
   245  0005                     	;# 
   246  0006                     	;# 
   247  0007                     	;# 
   248  0008                     	;# 
   249  0009                     	;# 
   250  000A                     	;# 
   251  000B                     	;# 
   252  000C                     	;# 
   253  000D                     	;# 
   254  000E                     	;# 
   255  0010                     	;# 
   256  0011                     	;# 
   257  0012                     	;# 
   258  0013                     	;# 
   259  0015                     	;# 
   260  0016                     	;# 
   261  0016                     	;# 
   262  0017                     	;# 
   263  0018                     	;# 
   264  0019                     	;# 
   265  001A                     	;# 
   266  001B                     	;# 
   267  001C                     	;# 
   268  001E                     	;# 
   269  001F                     	;# 
   270  008C                     	;# 
   271  008D                     	;# 
   272  008E                     	;# 
   273  0090                     	;# 
   274  0091                     	;# 
   275  0092                     	;# 
   276  0093                     	;# 
   277  0095                     	;# 
   278  0096                     	;# 
   279  0097                     	;# 
   280  0098                     	;# 
   281  0099                     	;# 
   282  009A                     	;# 
   283  009B                     	;# 
   284  009B                     	;# 
   285  009C                     	;# 
   286  009D                     	;# 
   287  009E                     	;# 
   288  010C                     	;# 
   289  010D                     	;# 
   290  010E                     	;# 
   291  0110                     	;# 
   292  0111                     	;# 
   293  0112                     	;# 
   294  0113                     	;# 
   295  0114                     	;# 
   296  0115                     	;# 
   297  0116                     	;# 
   298  0117                     	;# 
   299  0118                     	;# 
   300  0119                     	;# 
   301  011A                     	;# 
   302  011B                     	;# 
   303  011D                     	;# 
   304  018C                     	;# 
   305  018D                     	;# 
   306  0191                     	;# 
   307  0191                     	;# 
   308  0192                     	;# 
   309  0193                     	;# 
   310  0193                     	;# 
   311  0193                     	;# 
   312  0194                     	;# 
   313  0195                     	;# 
   314  0196                     	;# 
   315  0199                     	;# 
   316  019A                     	;# 
   317  019B                     	;# 
   318  019B                     	;# 
   319  019B                     	;# 
   320  019B                     	;# 
   321  019C                     	;# 
   322  019C                     	;# 
   323  019D                     	;# 
   324  019E                     	;# 
   325  019F                     	;# 
   326  020D                     	;# 
   327  0210                     	;# 
   328  0211                     	;# 
   329  0212                     	;# 
   330  0213                     	;# 
   331  0214                     	;# 
   332  0215                     	;# 
   333  0215                     	;# 
   334  0216                     	;# 
   335  0217                     	;# 
   336  0291                     	;# 
   337  0291                     	;# 
   338  0292                     	;# 
   339  0293                     	;# 
   340  0294                     	;# 
   341  0295                     	;# 
   342  0295                     	;# 
   343  0296                     	;# 
   344  0298                     	;# 
   345  0298                     	;# 
   346  0299                     	;# 
   347  029A                     	;# 
   348  029B                     	;# 
   349  029C                     	;# 
   350  029C                     	;# 
   351  029D                     	;# 
   352  029E                     	;# 
   353  029F                     	;# 
   354  0311                     	;# 
   355  0311                     	;# 
   356  0312                     	;# 
   357  0313                     	;# 
   358  0314                     	;# 
   359  0315                     	;# 
   360  0315                     	;# 
   361  0316                     	;# 
   362  0318                     	;# 
   363  0318                     	;# 
   364  0319                     	;# 
   365  031A                     	;# 
   366  031C                     	;# 
   367  031C                     	;# 
   368  031D                     	;# 
   369  031E                     	;# 
   370  0394                     	;# 
   371  0395                     	;# 
   372  0396                     	;# 
   373  0415                     	;# 
   374  0416                     	;# 
   375  0417                     	;# 
   376  041C                     	;# 
   377  041D                     	;# 
   378  041E                     	;# 
   379  0791                     	;# 
   380  0792                     	;# 
   381  0793                     	;# 
   382  0794                     	;# 
   383  0795                     	;# 
   384  0798                     	;# 
   385  0799                     	;# 
   386  07A0                     	;# 
   387  07A1                     	;# 
   388  07A3                     	;# 
   389  07A4                     	;# 
   390  07A6                     	;# 
   391  07A7                     	;# 
   392  07A9                     	;# 
   393  07AA                     	;# 
   394  0FE4                     	;# 
   395  0FE5                     	;# 
   396  0FE6                     	;# 
   397  0FE7                     	;# 
   398  0FE8                     	;# 
   399  0FE9                     	;# 
   400  0FEA                     	;# 
   401  0FEB                     	;# 
   402  0FED                     	;# 
   403  0FEE                     	;# 
   404  0FEF                     	;# 
   405  0000                     	;# 
   406  0001                     	;# 
   407  0002                     	;# 
   408  0003                     	;# 
   409  0004                     	;# 
   410  0005                     	;# 
   411  0006                     	;# 
   412  0007                     	;# 
   413  0008                     	;# 
   414  0009                     	;# 
   415  000A                     	;# 
   416  000B                     	;# 
   417  000C                     	;# 
   418  000D                     	;# 
   419  000E                     	;# 
   420  0010                     	;# 
   421  0011                     	;# 
   422  0012                     	;# 
   423  0013                     	;# 
   424  0015                     	;# 
   425  0016                     	;# 
   426  0016                     	;# 
   427  0017                     	;# 
   428  0018                     	;# 
   429  0019                     	;# 
   430  001A                     	;# 
   431  001B                     	;# 
   432  001C                     	;# 
   433  001E                     	;# 
   434  001F                     	;# 
   435  008C                     	;# 
   436  008D                     	;# 
   437  008E                     	;# 
   438  0090                     	;# 
   439  0091                     	;# 
   440  0092                     	;# 
   441  0093                     	;# 
   442  0095                     	;# 
   443  0096                     	;# 
   444  0097                     	;# 
   445  0098                     	;# 
   446  0099                     	;# 
   447  009A                     	;# 
   448  009B                     	;# 
   449  009B                     	;# 
   450  009C                     	;# 
   451  009D                     	;# 
   452  009E                     	;# 
   453  010C                     	;# 
   454  010D                     	;# 
   455  010E                     	;# 
   456  0110                     	;# 
   457  0111                     	;# 
   458  0112                     	;# 
   459  0113                     	;# 
   460  0114                     	;# 
   461  0115                     	;# 
   462  0116                     	;# 
   463  0117                     	;# 
   464  0118                     	;# 
   465  0119                     	;# 
   466  011A                     	;# 
   467  011B                     	;# 
   468  011D                     	;# 
   469  018C                     	;# 
   470  018D                     	;# 
   471  0191                     	;# 
   472  0191                     	;# 
   473  0192                     	;# 
   474  0193                     	;# 
   475  0193                     	;# 
   476  0193                     	;# 
   477  0194                     	;# 
   478  0195                     	;# 
   479  0196                     	;# 
   480  0199                     	;# 
   481  019A                     	;# 
   482  019B                     	;# 
   483  019B                     	;# 
   484  019B                     	;# 
   485  019B                     	;# 
   486  019C                     	;# 
   487  019C                     	;# 
   488  019D                     	;# 
   489  019E                     	;# 
   490  019F                     	;# 
   491  020D                     	;# 
   492  0210                     	;# 
   493  0211                     	;# 
   494  0212                     	;# 
   495  0213                     	;# 
   496  0214                     	;# 
   497  0215                     	;# 
   498  0215                     	;# 
   499  0216                     	;# 
   500  0217                     	;# 
   501  0291                     	;# 
   502  0291                     	;# 
   503  0292                     	;# 
   504  0293                     	;# 
   505  0294                     	;# 
   506  0295                     	;# 
   507  0295                     	;# 
   508  0296                     	;# 
   509  0298                     	;# 
   510  0298                     	;# 
   511  0299                     	;# 
   512  029A                     	;# 
   513  029B                     	;# 
   514  029C                     	;# 
   515  029C                     	;# 
   516  029D                     	;# 
   517  029E                     	;# 
   518  029F                     	;# 
   519  0311                     	;# 
   520  0311                     	;# 
   521  0312                     	;# 
   522  0313                     	;# 
   523  0314                     	;# 
   524  0315                     	;# 
   525  0315                     	;# 
   526  0316                     	;# 
   527  0318                     	;# 
   528  0318                     	;# 
   529  0319                     	;# 
   530  031A                     	;# 
   531  031C                     	;# 
   532  031C                     	;# 
   533  031D                     	;# 
   534  031E                     	;# 
   535  0394                     	;# 
   536  0395                     	;# 
   537  0396                     	;# 
   538  0415                     	;# 
   539  0416                     	;# 
   540  0417                     	;# 
   541  041C                     	;# 
   542  041D                     	;# 
   543  041E                     	;# 
   544  0791                     	;# 
   545  0792                     	;# 
   546  0793                     	;# 
   547  0794                     	;# 
   548  0795                     	;# 
   549  0798                     	;# 
   550  0799                     	;# 
   551  07A0                     	;# 
   552  07A1                     	;# 
   553  07A3                     	;# 
   554  07A4                     	;# 
   555  07A6                     	;# 
   556  07A7                     	;# 
   557  07A9                     	;# 
   558  07AA                     	;# 
   559  0FE4                     	;# 
   560  0FE5                     	;# 
   561  0FE6                     	;# 
   562  0FE7                     	;# 
   563  0FE8                     	;# 
   564  0FE9                     	;# 
   565  0FEA                     	;# 
   566  0FEB                     	;# 
   567  0FED                     	;# 
   568  0FEE                     	;# 
   569  0FEF                     	;# 
   570  0000                     	;# 
   571  0001                     	;# 
   572  0002                     	;# 
   573  0003                     	;# 
   574  0004                     	;# 
   575  0005                     	;# 
   576  0006                     	;# 
   577  0007                     	;# 
   578  0008                     	;# 
   579  0009                     	;# 
   580  000A                     	;# 
   581  000B                     	;# 
   582  000C                     	;# 
   583  000D                     	;# 
   584  000E                     	;# 
   585  0010                     	;# 
   586  0011                     	;# 
   587  0012                     	;# 
   588  0013                     	;# 
   589  0015                     	;# 
   590  0016                     	;# 
   591  0016                     	;# 
   592  0017                     	;# 
   593  0018                     	;# 
   594  0019                     	;# 
   595  001A                     	;# 
   596  001B                     	;# 
   597  001C                     	;# 
   598  001E                     	;# 
   599  001F                     	;# 
   600  008C                     	;# 
   601  008D                     	;# 
   602  008E                     	;# 
   603  0090                     	;# 
   604  0091                     	;# 
   605  0092                     	;# 
   606  0093                     	;# 
   607  0095                     	;# 
   608  0096                     	;# 
   609  0097                     	;# 
   610  0098                     	;# 
   611  0099                     	;# 
   612  009A                     	;# 
   613  009B                     	;# 
   614  009B                     	;# 
   615  009C                     	;# 
   616  009D                     	;# 
   617  009E                     	;# 
   618  010C                     	;# 
   619  010D                     	;# 
   620  010E                     	;# 
   621  0110                     	;# 
   622  0111                     	;# 
   623  0112                     	;# 
   624  0113                     	;# 
   625  0114                     	;# 
   626  0115                     	;# 
   627  0116                     	;# 
   628  0117                     	;# 
   629  0118                     	;# 
   630  0119                     	;# 
   631  011A                     	;# 
   632  011B                     	;# 
   633  011D                     	;# 
   634  018C                     	;# 
   635  018D                     	;# 
   636  0191                     	;# 
   637  0191                     	;# 
   638  0192                     	;# 
   639  0193                     	;# 
   640  0193                     	;# 
   641  0193                     	;# 
   642  0194                     	;# 
   643  0195                     	;# 
   644  0196                     	;# 
   645  0199                     	;# 
   646  019A                     	;# 
   647  019B                     	;# 
   648  019B                     	;# 
   649  019B                     	;# 
   650  019B                     	;# 
   651  019C                     	;# 
   652  019C                     	;# 
   653  019D                     	;# 
   654  019E                     	;# 
   655  019F                     	;# 
   656  020D                     	;# 
   657  0210                     	;# 
   658  0211                     	;# 
   659  0212                     	;# 
   660  0213                     	;# 
   661  0214                     	;# 
   662  0215                     	;# 
   663  0215                     	;# 
   664  0216                     	;# 
   665  0217                     	;# 
   666  0291                     	;# 
   667  0291                     	;# 
   668  0292                     	;# 
   669  0293                     	;# 
   670  0294                     	;# 
   671  0295                     	;# 
   672  0295                     	;# 
   673  0296                     	;# 
   674  0298                     	;# 
   675  0298                     	;# 
   676  0299                     	;# 
   677  029A                     	;# 
   678  029B                     	;# 
   679  029C                     	;# 
   680  029C                     	;# 
   681  029D                     	;# 
   682  029E                     	;# 
   683  029F                     	;# 
   684  0311                     	;# 
   685  0311                     	;# 
   686  0312                     	;# 
   687  0313                     	;# 
   688  0314                     	;# 
   689  0315                     	;# 
   690  0315                     	;# 
   691  0316                     	;# 
   692  0318                     	;# 
   693  0318                     	;# 
   694  0319                     	;# 
   695  031A                     	;# 
   696  031C                     	;# 
   697  031C                     	;# 
   698  031D                     	;# 
   699  031E                     	;# 
   700  0394                     	;# 
   701  0395                     	;# 
   702  0396                     	;# 
   703  0415                     	;# 
   704  0416                     	;# 
   705  0417                     	;# 
   706  041C                     	;# 
   707  041D                     	;# 
   708  041E                     	;# 
   709  0791                     	;# 
   710  0792                     	;# 
   711  0793                     	;# 
   712  0794                     	;# 
   713  0795                     	;# 
   714  0798                     	;# 
   715  0799                     	;# 
   716  07A0                     	;# 
   717  07A1                     	;# 
   718  07A3                     	;# 
   719  07A4                     	;# 
   720  07A6                     	;# 
   721  07A7                     	;# 
   722  07A9                     	;# 
   723  07AA                     	;# 
   724  0FE4                     	;# 
   725  0FE5                     	;# 
   726  0FE6                     	;# 
   727  0FE7                     	;# 
   728  0FE8                     	;# 
   729  0FE9                     	;# 
   730  0FEA                     	;# 
   731  0FEB                     	;# 
   732  0FED                     	;# 
   733  0FEE                     	;# 
   734  0FEF                     	;# 
   735  0000                     	;# 
   736  0001                     	;# 
   737  0002                     	;# 
   738  0003                     	;# 
   739  0004                     	;# 
   740  0005                     	;# 
   741  0006                     	;# 
   742  0007                     	;# 
   743  0008                     	;# 
   744  0009                     	;# 
   745  000A                     	;# 
   746  000B                     	;# 
   747  000C                     	;# 
   748  000D                     	;# 
   749  000E                     	;# 
   750  0010                     	;# 
   751  0011                     	;# 
   752  0012                     	;# 
   753  0013                     	;# 
   754  0015                     	;# 
   755  0016                     	;# 
   756  0016                     	;# 
   757  0017                     	;# 
   758  0018                     	;# 
   759  0019                     	;# 
   760  001A                     	;# 
   761  001B                     	;# 
   762  001C                     	;# 
   763  001E                     	;# 
   764  001F                     	;# 
   765  008C                     	;# 
   766  008D                     	;# 
   767  008E                     	;# 
   768  0090                     	;# 
   769  0091                     	;# 
   770  0092                     	;# 
   771  0093                     	;# 
   772  0095                     	;# 
   773  0096                     	;# 
   774  0097                     	;# 
   775  0098                     	;# 
   776  0099                     	;# 
   777  009A                     	;# 
   778  009B                     	;# 
   779  009B                     	;# 
   780  009C                     	;# 
   781  009D                     	;# 
   782  009E                     	;# 
   783  010C                     	;# 
   784  010D                     	;# 
   785  010E                     	;# 
   786  0110                     	;# 
   787  0111                     	;# 
   788  0112                     	;# 
   789  0113                     	;# 
   790  0114                     	;# 
   791  0115                     	;# 
   792  0116                     	;# 
   793  0117                     	;# 
   794  0118                     	;# 
   795  0119                     	;# 
   796  011A                     	;# 
   797  011B                     	;# 
   798  011D                     	;# 
   799  018C                     	;# 
   800  018D                     	;# 
   801  0191                     	;# 
   802  0191                     	;# 
   803  0192                     	;# 
   804  0193                     	;# 
   805  0193                     	;# 
   806  0193                     	;# 
   807  0194                     	;# 
   808  0195                     	;# 
   809  0196                     	;# 
   810  0199                     	;# 
   811  019A                     	;# 
   812  019B                     	;# 
   813  019B                     	;# 
   814  019B                     	;# 
   815  019B                     	;# 
   816  019C                     	;# 
   817  019C                     	;# 
   818  019D                     	;# 
   819  019E                     	;# 
   820  019F                     	;# 
   821  020D                     	;# 
   822  0210                     	;# 
   823  0211                     	;# 
   824  0212                     	;# 
   825  0213                     	;# 
   826  0214                     	;# 
   827  0215                     	;# 
   828  0215                     	;# 
   829  0216                     	;# 
   830  0217                     	;# 
   831  0291                     	;# 
   832  0291                     	;# 
   833  0292                     	;# 
   834  0293                     	;# 
   835  0294                     	;# 
   836  0295                     	;# 
   837  0295                     	;# 
   838  0296                     	;# 
   839  0298                     	;# 
   840  0298                     	;# 
   841  0299                     	;# 
   842  029A                     	;# 
   843  029B                     	;# 
   844  029C                     	;# 
   845  029C                     	;# 
   846  029D                     	;# 
   847  029E                     	;# 
   848  029F                     	;# 
   849  0311                     	;# 
   850  0311                     	;# 
   851  0312                     	;# 
   852  0313                     	;# 
   853  0314                     	;# 
   854  0315                     	;# 
   855  0315                     	;# 
   856  0316                     	;# 
   857  0318                     	;# 
   858  0318                     	;# 
   859  0319                     	;# 
   860  031A                     	;# 
   861  031C                     	;# 
   862  031C                     	;# 
   863  031D                     	;# 
   864  031E                     	;# 
   865  0394                     	;# 
   866  0395                     	;# 
   867  0396                     	;# 
   868  0415                     	;# 
   869  0416                     	;# 
   870  0417                     	;# 
   871  041C                     	;# 
   872  041D                     	;# 
   873  041E                     	;# 
   874  0791                     	;# 
   875  0792                     	;# 
   876  0793                     	;# 
   877  0794                     	;# 
   878  0795                     	;# 
   879  0798                     	;# 
   880  0799                     	;# 
   881  07A0                     	;# 
   882  07A1                     	;# 
   883  07A3                     	;# 
   884  07A4                     	;# 
   885  07A6                     	;# 
   886  07A7                     	;# 
   887  07A9                     	;# 
   888  07AA                     	;# 
   889  0FE4                     	;# 
   890  0FE5                     	;# 
   891  0FE6                     	;# 
   892  0FE7                     	;# 
   893  0FE8                     	;# 
   894  0FE9                     	;# 
   895  0FEA                     	;# 
   896  0FEB                     	;# 
   897  0FED                     	;# 
   898  0FEE                     	;# 
   899  0FEF                     	;# 
   900  0000                     	;# 
   901  0001                     	;# 
   902  0002                     	;# 
   903  0003                     	;# 
   904  0004                     	;# 
   905  0005                     	;# 
   906  0006                     	;# 
   907  0007                     	;# 
   908  0008                     	;# 
   909  0009                     	;# 
   910  000A                     	;# 
   911  000B                     	;# 
   912  000C                     	;# 
   913  000D                     	;# 
   914  000E                     	;# 
   915  0010                     	;# 
   916  0011                     	;# 
   917  0012                     	;# 
   918  0013                     	;# 
   919  0015                     	;# 
   920  0016                     	;# 
   921  0016                     	;# 
   922  0017                     	;# 
   923  0018                     	;# 
   924  0019                     	;# 
   925  001A                     	;# 
   926  001B                     	;# 
   927  001C                     	;# 
   928  001E                     	;# 
   929  001F                     	;# 
   930  008C                     	;# 
   931  008D                     	;# 
   932  008E                     	;# 
   933  0090                     	;# 
   934  0091                     	;# 
   935  0092                     	;# 
   936  0093                     	;# 
   937  0095                     	;# 
   938  0096                     	;# 
   939  0097                     	;# 
   940  0098                     	;# 
   941  0099                     	;# 
   942  009A                     	;# 
   943  009B                     	;# 
   944  009B                     	;# 
   945  009C                     	;# 
   946  009D                     	;# 
   947  009E                     	;# 
   948  010C                     	;# 
   949  010D                     	;# 
   950  010E                     	;# 
   951  0110                     	;# 
   952  0111                     	;# 
   953  0112                     	;# 
   954  0113                     	;# 
   955  0114                     	;# 
   956  0115                     	;# 
   957  0116                     	;# 
   958  0117                     	;# 
   959  0118                     	;# 
   960  0119                     	;# 
   961  011A                     	;# 
   962  011B                     	;# 
   963  011D                     	;# 
   964  018C                     	;# 
   965  018D                     	;# 
   966  0191                     	;# 
   967  0191                     	;# 
   968  0192                     	;# 
   969  0193                     	;# 
   970  0193                     	;# 
   971  0193                     	;# 
   972  0194                     	;# 
   973  0195                     	;# 
   974  0196                     	;# 
   975  0199                     	;# 
   976  019A                     	;# 
   977  019B                     	;# 
   978  019B                     	;# 
   979  019B                     	;# 
   980  019B                     	;# 
   981  019C                     	;# 
   982  019C                     	;# 
   983  019D                     	;# 
   984  019E                     	;# 
   985  019F                     	;# 
   986  020D                     	;# 
   987  0210                     	;# 
   988  0211                     	;# 
   989  0212                     	;# 
   990  0213                     	;# 
   991  0214                     	;# 
   992  0215                     	;# 
   993  0215                     	;# 
   994  0216                     	;# 
   995  0217                     	;# 
   996  0291                     	;# 
   997  0291                     	;# 
   998  0292                     	;# 
   999  0293                     	;# 
  1000  0294                     	;# 
  1001  0295                     	;# 
  1002  0295                     	;# 
  1003  0296                     	;# 
  1004  0298                     	;# 
  1005  0298                     	;# 
  1006  0299                     	;# 
  1007  029A                     	;# 
  1008  029B                     	;# 
  1009  029C                     	;# 
  1010  029C                     	;# 
  1011  029D                     	;# 
  1012  029E                     	;# 
  1013  029F                     	;# 
  1014  0311                     	;# 
  1015  0311                     	;# 
  1016  0312                     	;# 
  1017  0313                     	;# 
  1018  0314                     	;# 
  1019  0315                     	;# 
  1020  0315                     	;# 
  1021  0316                     	;# 
  1022  0318                     	;# 
  1023  0318                     	;# 
  1024  0319                     	;# 
  1025  031A                     	;# 
  1026  031C                     	;# 
  1027  031C                     	;# 
  1028  031D                     	;# 
  1029  031E                     	;# 
  1030  0394                     	;# 
  1031  0395                     	;# 
  1032  0396                     	;# 
  1033  0415                     	;# 
  1034  0416                     	;# 
  1035  0417                     	;# 
  1036  041C                     	;# 
  1037  041D                     	;# 
  1038  041E                     	;# 
  1039  0791                     	;# 
  1040  0792                     	;# 
  1041  0793                     	;# 
  1042  0794                     	;# 
  1043  0795                     	;# 
  1044  0798                     	;# 
  1045  0799                     	;# 
  1046  07A0                     	;# 
  1047  07A1                     	;# 
  1048  07A3                     	;# 
  1049  07A4                     	;# 
  1050  07A6                     	;# 
  1051  07A7                     	;# 
  1052  07A9                     	;# 
  1053  07AA                     	;# 
  1054  0FE4                     	;# 
  1055  0FE5                     	;# 
  1056  0FE6                     	;# 
  1057  0FE7                     	;# 
  1058  0FE8                     	;# 
  1059  0FE9                     	;# 
  1060  0FEA                     	;# 
  1061  0FEB                     	;# 
  1062  0FED                     	;# 
  1063  0FEE                     	;# 
  1064  0FEF                     	;# 
  1065  0000                     	;# 
  1066  0001                     	;# 
  1067  0002                     	;# 
  1068  0003                     	;# 
  1069  0004                     	;# 
  1070  0005                     	;# 
  1071  0006                     	;# 
  1072  0007                     	;# 
  1073  0008                     	;# 
  1074  0009                     	;# 
  1075  000A                     	;# 
  1076  000B                     	;# 
  1077  000C                     	;# 
  1078  000D                     	;# 
  1079  000E                     	;# 
  1080  0010                     	;# 
  1081  0011                     	;# 
  1082  0012                     	;# 
  1083  0013                     	;# 
  1084  0015                     	;# 
  1085  0016                     	;# 
  1086  0016                     	;# 
  1087  0017                     	;# 
  1088  0018                     	;# 
  1089  0019                     	;# 
  1090  001A                     	;# 
  1091  001B                     	;# 
  1092  001C                     	;# 
  1093  001E                     	;# 
  1094  001F                     	;# 
  1095  008C                     	;# 
  1096  008D                     	;# 
  1097  008E                     	;# 
  1098  0090                     	;# 
  1099  0091                     	;# 
  1100  0092                     	;# 
  1101  0093                     	;# 
  1102  0095                     	;# 
  1103  0096                     	;# 
  1104  0097                     	;# 
  1105  0098                     	;# 
  1106  0099                     	;# 
  1107  009A                     	;# 
  1108  009B                     	;# 
  1109  009B                     	;# 
  1110  009C                     	;# 
  1111  009D                     	;# 
  1112  009E                     	;# 
  1113  010C                     	;# 
  1114  010D                     	;# 
  1115  010E                     	;# 
  1116  0110                     	;# 
  1117  0111                     	;# 
  1118  0112                     	;# 
  1119  0113                     	;# 
  1120  0114                     	;# 
  1121  0115                     	;# 
  1122  0116                     	;# 
  1123  0117                     	;# 
  1124  0118                     	;# 
  1125  0119                     	;# 
  1126  011A                     	;# 
  1127  011B                     	;# 
  1128  011D                     	;# 
  1129  018C                     	;# 
  1130  018D                     	;# 
  1131  0191                     	;# 
  1132  0191                     	;# 
  1133  0192                     	;# 
  1134  0193                     	;# 
  1135  0193                     	;# 
  1136  0193                     	;# 
  1137  0194                     	;# 
  1138  0195                     	;# 
  1139  0196                     	;# 
  1140  0199                     	;# 
  1141  019A                     	;# 
  1142  019B                     	;# 
  1143  019B                     	;# 
  1144  019B                     	;# 
  1145  019B                     	;# 
  1146  019C                     	;# 
  1147  019C                     	;# 
  1148  019D                     	;# 
  1149  019E                     	;# 
  1150  019F                     	;# 
  1151  020D                     	;# 
  1152  0210                     	;# 
  1153  0211                     	;# 
  1154  0212                     	;# 
  1155  0213                     	;# 
  1156  0214                     	;# 
  1157  0215                     	;# 
  1158  0215                     	;# 
  1159  0216                     	;# 
  1160  0217                     	;# 
  1161  0291                     	;# 
  1162  0291                     	;# 
  1163  0292                     	;# 
  1164  0293                     	;# 
  1165  0294                     	;# 
  1166  0295                     	;# 
  1167  0295                     	;# 
  1168  0296                     	;# 
  1169  0298                     	;# 
  1170  0298                     	;# 
  1171  0299                     	;# 
  1172  029A                     	;# 
  1173  029B                     	;# 
  1174  029C                     	;# 
  1175  029C                     	;# 
  1176  029D                     	;# 
  1177  029E                     	;# 
  1178  029F                     	;# 
  1179  0311                     	;# 
  1180  0311                     	;# 
  1181  0312                     	;# 
  1182  0313                     	;# 
  1183  0314                     	;# 
  1184  0315                     	;# 
  1185  0315                     	;# 
  1186  0316                     	;# 
  1187  0318                     	;# 
  1188  0318                     	;# 
  1189  0319                     	;# 
  1190  031A                     	;# 
  1191  031C                     	;# 
  1192  031C                     	;# 
  1193  031D                     	;# 
  1194  031E                     	;# 
  1195  0394                     	;# 
  1196  0395                     	;# 
  1197  0396                     	;# 
  1198  0415                     	;# 
  1199  0416                     	;# 
  1200  0417                     	;# 
  1201  041C                     	;# 
  1202  041D                     	;# 
  1203  041E                     	;# 
  1204  0791                     	;# 
  1205  0792                     	;# 
  1206  0793                     	;# 
  1207  0794                     	;# 
  1208  0795                     	;# 
  1209  0798                     	;# 
  1210  0799                     	;# 
  1211  07A0                     	;# 
  1212  07A1                     	;# 
  1213  07A3                     	;# 
  1214  07A4                     	;# 
  1215  07A6                     	;# 
  1216  07A7                     	;# 
  1217  07A9                     	;# 
  1218  07AA                     	;# 
  1219  0FE4                     	;# 
  1220  0FE5                     	;# 
  1221  0FE6                     	;# 
  1222  0FE7                     	;# 
  1223  0FE8                     	;# 
  1224  0FE9                     	;# 
  1225  0FEA                     	;# 
  1226  0FEB                     	;# 
  1227  0FED                     	;# 
  1228  0FEE                     	;# 
  1229  0FEF                     	;# 
  1230  0000                     	;# 
  1231  0001                     	;# 
  1232  0002                     	;# 
  1233  0003                     	;# 
  1234  0004                     	;# 
  1235  0005                     	;# 
  1236  0006                     	;# 
  1237  0007                     	;# 
  1238  0008                     	;# 
  1239  0009                     	;# 
  1240  000A                     	;# 
  1241  000B                     	;# 
  1242  000C                     	;# 
  1243  000D                     	;# 
  1244  000E                     	;# 
  1245  0010                     	;# 
  1246  0011                     	;# 
  1247  0012                     	;# 
  1248  0013                     	;# 
  1249  0015                     	;# 
  1250  0016                     	;# 
  1251  0016                     	;# 
  1252  0017                     	;# 
  1253  0018                     	;# 
  1254  0019                     	;# 
  1255  001A                     	;# 
  1256  001B                     	;# 
  1257  001C                     	;# 
  1258  001E                     	;# 
  1259  001F                     	;# 
  1260  008C                     	;# 
  1261  008D                     	;# 
  1262  008E                     	;# 
  1263  0090                     	;# 
  1264  0091                     	;# 
  1265  0092                     	;# 
  1266  0093                     	;# 
  1267  0095                     	;# 
  1268  0096                     	;# 
  1269  0097                     	;# 
  1270  0098                     	;# 
  1271  0099                     	;# 
  1272  009A                     	;# 
  1273  009B                     	;# 
  1274  009B                     	;# 
  1275  009C                     	;# 
  1276  009D                     	;# 
  1277  009E                     	;# 
  1278  010C                     	;# 
  1279  010D                     	;# 
  1280  010E                     	;# 
  1281  0110                     	;# 
  1282  0111                     	;# 
  1283  0112                     	;# 
  1284  0113                     	;# 
  1285  0114                     	;# 
  1286  0115                     	;# 
  1287  0116                     	;# 
  1288  0117                     	;# 
  1289  0118                     	;# 
  1290  0119                     	;# 
  1291  011A                     	;# 
  1292  011B                     	;# 
  1293  011D                     	;# 
  1294  018C                     	;# 
  1295  018D                     	;# 
  1296  0191                     	;# 
  1297  0191                     	;# 
  1298  0192                     	;# 
  1299  0193                     	;# 
  1300  0193                     	;# 
  1301  0193                     	;# 
  1302  0194                     	;# 
  1303  0195                     	;# 
  1304  0196                     	;# 
  1305  0199                     	;# 
  1306  019A                     	;# 
  1307  019B                     	;# 
  1308  019B                     	;# 
  1309  019B                     	;# 
  1310  019B                     	;# 
  1311  019C                     	;# 
  1312  019C                     	;# 
  1313  019D                     	;# 
  1314  019E                     	;# 
  1315  019F                     	;# 
  1316  020D                     	;# 
  1317  0210                     	;# 
  1318  0211                     	;# 
  1319  0212                     	;# 
  1320  0213                     	;# 
  1321  0214                     	;# 
  1322  0215                     	;# 
  1323  0215                     	;# 
  1324  0216                     	;# 
  1325  0217                     	;# 
  1326  0291                     	;# 
  1327  0291                     	;# 
  1328  0292                     	;# 
  1329  0293                     	;# 
  1330  0294                     	;# 
  1331  0295                     	;# 
  1332  0295                     	;# 
  1333  0296                     	;# 
  1334  0298                     	;# 
  1335  0298                     	;# 
  1336  0299                     	;# 
  1337  029A                     	;# 
  1338  029B                     	;# 
  1339  029C                     	;# 
  1340  029C                     	;# 
  1341  029D                     	;# 
  1342  029E                     	;# 
  1343  029F                     	;# 
  1344  0311                     	;# 
  1345  0311                     	;# 
  1346  0312                     	;# 
  1347  0313                     	;# 
  1348  0314                     	;# 
  1349  0315                     	;# 
  1350  0315                     	;# 
  1351  0316                     	;# 
  1352  0318                     	;# 
  1353  0318                     	;# 
  1354  0319                     	;# 
  1355  031A                     	;# 
  1356  031C                     	;# 
  1357  031C                     	;# 
  1358  031D                     	;# 
  1359  031E                     	;# 
  1360  0394                     	;# 
  1361  0395                     	;# 
  1362  0396                     	;# 
  1363  0415                     	;# 
  1364  0416                     	;# 
  1365  0417                     	;# 
  1366  041C                     	;# 
  1367  041D                     	;# 
  1368  041E                     	;# 
  1369  0791                     	;# 
  1370  0792                     	;# 
  1371  0793                     	;# 
  1372  0794                     	;# 
  1373  0795                     	;# 
  1374  0798                     	;# 
  1375  0799                     	;# 
  1376  07A0                     	;# 
  1377  07A1                     	;# 
  1378  07A3                     	;# 
  1379  07A4                     	;# 
  1380  07A6                     	;# 
  1381  07A7                     	;# 
  1382  07A9                     	;# 
  1383  07AA                     	;# 
  1384  0FE4                     	;# 
  1385  0FE5                     	;# 
  1386  0FE6                     	;# 
  1387  0FE7                     	;# 
  1388  0FE8                     	;# 
  1389  0FE9                     	;# 
  1390  0FEA                     	;# 
  1391  0FEB                     	;# 
  1392  0FED                     	;# 
  1393  0FEE                     	;# 
  1394  0FEF                     	;# 
  1395  0000                     	;# 
  1396  0001                     	;# 
  1397  0002                     	;# 
  1398  0003                     	;# 
  1399  0004                     	;# 
  1400  0005                     	;# 
  1401  0006                     	;# 
  1402  0007                     	;# 
  1403  0008                     	;# 
  1404  0009                     	;# 
  1405  000A                     	;# 
  1406  000B                     	;# 
  1407  000C                     	;# 
  1408  000D                     	;# 
  1409  000E                     	;# 
  1410  0010                     	;# 
  1411  0011                     	;# 
  1412  0012                     	;# 
  1413  0013                     	;# 
  1414  0015                     	;# 
  1415  0016                     	;# 
  1416  0016                     	;# 
  1417  0017                     	;# 
  1418  0018                     	;# 
  1419  0019                     	;# 
  1420  001A                     	;# 
  1421  001B                     	;# 
  1422  001C                     	;# 
  1423  001E                     	;# 
  1424  001F                     	;# 
  1425  008C                     	;# 
  1426  008D                     	;# 
  1427  008E                     	;# 
  1428  0090                     	;# 
  1429  0091                     	;# 
  1430  0092                     	;# 
  1431  0093                     	;# 
  1432  0095                     	;# 
  1433  0096                     	;# 
  1434  0097                     	;# 
  1435  0098                     	;# 
  1436  0099                     	;# 
  1437  009A                     	;# 
  1438  009B                     	;# 
  1439  009B                     	;# 
  1440  009C                     	;# 
  1441  009D                     	;# 
  1442  009E                     	;# 
  1443  010C                     	;# 
  1444  010D                     	;# 
  1445  010E                     	;# 
  1446  0110                     	;# 
  1447  0111                     	;# 
  1448  0112                     	;# 
  1449  0113                     	;# 
  1450  0114                     	;# 
  1451  0115                     	;# 
  1452  0116                     	;# 
  1453  0117                     	;# 
  1454  0118                     	;# 
  1455  0119                     	;# 
  1456  011A                     	;# 
  1457  011B                     	;# 
  1458  011D                     	;# 
  1459  018C                     	;# 
  1460  018D                     	;# 
  1461  0191                     	;# 
  1462  0191                     	;# 
  1463  0192                     	;# 
  1464  0193                     	;# 
  1465  0193                     	;# 
  1466  0193                     	;# 
  1467  0194                     	;# 
  1468  0195                     	;# 
  1469  0196                     	;# 
  1470  0199                     	;# 
  1471  019A                     	;# 
  1472  019B                     	;# 
  1473  019B                     	;# 
  1474  019B                     	;# 
  1475  019B                     	;# 
  1476  019C                     	;# 
  1477  019C                     	;# 
  1478  019D                     	;# 
  1479  019E                     	;# 
  1480  019F                     	;# 
  1481  020D                     	;# 
  1482  0210                     	;# 
  1483  0211                     	;# 
  1484  0212                     	;# 
  1485  0213                     	;# 
  1486  0214                     	;# 
  1487  0215                     	;# 
  1488  0215                     	;# 
  1489  0216                     	;# 
  1490  0217                     	;# 
  1491  0291                     	;# 
  1492  0291                     	;# 
  1493  0292                     	;# 
  1494  0293                     	;# 
  1495  0294                     	;# 
  1496  0295                     	;# 
  1497  0295                     	;# 
  1498  0296                     	;# 
  1499  0298                     	;# 
  1500  0298                     	;# 
  1501  0299                     	;# 
  1502  029A                     	;# 
  1503  029B                     	;# 
  1504  029C                     	;# 
  1505  029C                     	;# 
  1506  029D                     	;# 
  1507  029E                     	;# 
  1508  029F                     	;# 
  1509  0311                     	;# 
  1510  0311                     	;# 
  1511  0312                     	;# 
  1512  0313                     	;# 
  1513  0314                     	;# 
  1514  0315                     	;# 
  1515  0315                     	;# 
  1516  0316                     	;# 
  1517  0318                     	;# 
  1518  0318                     	;# 
  1519  0319                     	;# 
  1520  031A                     	;# 
  1521  031C                     	;# 
  1522  031C                     	;# 
  1523  031D                     	;# 
  1524  031E                     	;# 
  1525  0394                     	;# 
  1526  0395                     	;# 
  1527  0396                     	;# 
  1528  0415                     	;# 
  1529  0416                     	;# 
  1530  0417                     	;# 
  1531  041C                     	;# 
  1532  041D                     	;# 
  1533  041E                     	;# 
  1534  0791                     	;# 
  1535  0792                     	;# 
  1536  0793                     	;# 
  1537  0794                     	;# 
  1538  0795                     	;# 
  1539  0798                     	;# 
  1540  0799                     	;# 
  1541  07A0                     	;# 
  1542  07A1                     	;# 
  1543  07A3                     	;# 
  1544  07A4                     	;# 
  1545  07A6                     	;# 
  1546  07A7                     	;# 
  1547  07A9                     	;# 
  1548  07AA                     	;# 
  1549  0FE4                     	;# 
  1550  0FE5                     	;# 
  1551  0FE6                     	;# 
  1552  0FE7                     	;# 
  1553  0FE8                     	;# 
  1554  0FE9                     	;# 
  1555  0FEA                     	;# 
  1556  0FEB                     	;# 
  1557  0FED                     	;# 
  1558  0FEE                     	;# 
  1559  0FEF                     	;# 
  1560  0000                     	;# 
  1561  0001                     	;# 
  1562  0002                     	;# 
  1563  0003                     	;# 
  1564  0004                     	;# 
  1565  0005                     	;# 
  1566  0006                     	;# 
  1567  0007                     	;# 
  1568  0008                     	;# 
  1569  0009                     	;# 
  1570  000A                     	;# 
  1571  000B                     	;# 
  1572  000C                     	;# 
  1573  000D                     	;# 
  1574  000E                     	;# 
  1575  0010                     	;# 
  1576  0011                     	;# 
  1577  0012                     	;# 
  1578  0013                     	;# 
  1579  0015                     	;# 
  1580  0016                     	;# 
  1581  0016                     	;# 
  1582  0017                     	;# 
  1583  0018                     	;# 
  1584  0019                     	;# 
  1585  001A                     	;# 
  1586  001B                     	;# 
  1587  001C                     	;# 
  1588  001E                     	;# 
  1589  001F                     	;# 
  1590  008C                     	;# 
  1591  008D                     	;# 
  1592  008E                     	;# 
  1593  0090                     	;# 
  1594  0091                     	;# 
  1595  0092                     	;# 
  1596  0093                     	;# 
  1597  0095                     	;# 
  1598  0096                     	;# 
  1599  0097                     	;# 
  1600  0098                     	;# 
  1601  0099                     	;# 
  1602  009A                     	;# 
  1603  009B                     	;# 
  1604  009B                     	;# 
  1605  009C                     	;# 
  1606  009D                     	;# 
  1607  009E                     	;# 
  1608  010C                     	;# 
  1609  010D                     	;# 
  1610  010E                     	;# 
  1611  0110                     	;# 
  1612  0111                     	;# 
  1613  0112                     	;# 
  1614  0113                     	;# 
  1615  0114                     	;# 
  1616  0115                     	;# 
  1617  0116                     	;# 
  1618  0117                     	;# 
  1619  0118                     	;# 
  1620  0119                     	;# 
  1621  011A                     	;# 
  1622  011B                     	;# 
  1623  011D                     	;# 
  1624  018C                     	;# 
  1625  018D                     	;# 
  1626  0191                     	;# 
  1627  0191                     	;# 
  1628  0192                     	;# 
  1629  0193                     	;# 
  1630  0193                     	;# 
  1631  0193                     	;# 
  1632  0194                     	;# 
  1633  0195                     	;# 
  1634  0196                     	;# 
  1635  0199                     	;# 
  1636  019A                     	;# 
  1637  019B                     	;# 
  1638  019B                     	;# 
  1639  019B                     	;# 
  1640  019B                     	;# 
  1641  019C                     	;# 
  1642  019C                     	;# 
  1643  019D                     	;# 
  1644  019E                     	;# 
  1645  019F                     	;# 
  1646  020D                     	;# 
  1647  0210                     	;# 
  1648  0211                     	;# 
  1649  0212                     	;# 
  1650  0213                     	;# 
  1651  0214                     	;# 
  1652  0215                     	;# 
  1653  0215                     	;# 
  1654  0216                     	;# 
  1655  0217                     	;# 
  1656  0291                     	;# 
  1657  0291                     	;# 
  1658  0292                     	;# 
  1659  0293                     	;# 
  1660  0294                     	;# 
  1661  0295                     	;# 
  1662  0295                     	;# 
  1663  0296                     	;# 
  1664  0298                     	;# 
  1665  0298                     	;# 
  1666  0299                     	;# 
  1667  029A                     	;# 
  1668  029B                     	;# 
  1669  029C                     	;# 
  1670  029C                     	;# 
  1671  029D                     	;# 
  1672  029E                     	;# 
  1673  029F                     	;# 
  1674  0311                     	;# 
  1675  0311                     	;# 
  1676  0312                     	;# 
  1677  0313                     	;# 
  1678  0314                     	;# 
  1679  0315                     	;# 
  1680  0315                     	;# 
  1681  0316                     	;# 
  1682  0318                     	;# 
  1683  0318                     	;# 
  1684  0319                     	;# 
  1685  031A                     	;# 
  1686  031C                     	;# 
  1687  031C                     	;# 
  1688  031D                     	;# 
  1689  031E                     	;# 
  1690  0394                     	;# 
  1691  0395                     	;# 
  1692  0396                     	;# 
  1693  0415                     	;# 
  1694  0416                     	;# 
  1695  0417                     	;# 
  1696  041C                     	;# 
  1697  041D                     	;# 
  1698  041E                     	;# 
  1699  0791                     	;# 
  1700  0792                     	;# 
  1701  0793                     	;# 
  1702  0794                     	;# 
  1703  0795                     	;# 
  1704  0798                     	;# 
  1705  0799                     	;# 
  1706  07A0                     	;# 
  1707  07A1                     	;# 
  1708  07A3                     	;# 
  1709  07A4                     	;# 
  1710  07A6                     	;# 
  1711  07A7                     	;# 
  1712  07A9                     	;# 
  1713  07AA                     	;# 
  1714  0FE4                     	;# 
  1715  0FE5                     	;# 
  1716  0FE6                     	;# 
  1717  0FE7                     	;# 
  1718  0FE8                     	;# 
  1719  0FE9                     	;# 
  1720  0FEA                     	;# 
  1721  0FEB                     	;# 
  1722  0FED                     	;# 
  1723  0FEE                     	;# 
  1724  0FEF                     	;# 
  1725  0000                     	;# 
  1726  0001                     	;# 
  1727  0002                     	;# 
  1728  0003                     	;# 
  1729  0004                     	;# 
  1730  0005                     	;# 
  1731  0006                     	;# 
  1732  0007                     	;# 
  1733  0008                     	;# 
  1734  0009                     	;# 
  1735  000A                     	;# 
  1736  000B                     	;# 
  1737  000C                     	;# 
  1738  000D                     	;# 
  1739  000E                     	;# 
  1740  0010                     	;# 
  1741  0011                     	;# 
  1742  0012                     	;# 
  1743  0013                     	;# 
  1744  0015                     	;# 
  1745  0016                     	;# 
  1746  0016                     	;# 
  1747  0017                     	;# 
  1748  0018                     	;# 
  1749  0019                     	;# 
  1750  001A                     	;# 
  1751  001B                     	;# 
  1752  001C                     	;# 
  1753  001E                     	;# 
  1754  001F                     	;# 
  1755  008C                     	;# 
  1756  008D                     	;# 
  1757  008E                     	;# 
  1758  0090                     	;# 
  1759  0091                     	;# 
  1760  0092                     	;# 
  1761  0093                     	;# 
  1762  0095                     	;# 
  1763  0096                     	;# 
  1764  0097                     	;# 
  1765  0098                     	;# 
  1766  0099                     	;# 
  1767  009A                     	;# 
  1768  009B                     	;# 
  1769  009B                     	;# 
  1770  009C                     	;# 
  1771  009D                     	;# 
  1772  009E                     	;# 
  1773  010C                     	;# 
  1774  010D                     	;# 
  1775  010E                     	;# 
  1776  0110                     	;# 
  1777  0111                     	;# 
  1778  0112                     	;# 
  1779  0113                     	;# 
  1780  0114                     	;# 
  1781  0115                     	;# 
  1782  0116                     	;# 
  1783  0117                     	;# 
  1784  0118                     	;# 
  1785  0119                     	;# 
  1786  011A                     	;# 
  1787  011B                     	;# 
  1788  011D                     	;# 
  1789  018C                     	;# 
  1790  018D                     	;# 
  1791  0191                     	;# 
  1792  0191                     	;# 
  1793  0192                     	;# 
  1794  0193                     	;# 
  1795  0193                     	;# 
  1796  0193                     	;# 
  1797  0194                     	;# 
  1798  0195                     	;# 
  1799  0196                     	;# 
  1800  0199                     	;# 
  1801  019A                     	;# 
  1802  019B                     	;# 
  1803  019B                     	;# 
  1804  019B                     	;# 
  1805  019B                     	;# 
  1806  019C                     	;# 
  1807  019C                     	;# 
  1808  019D                     	;# 
  1809  019E                     	;# 
  1810  019F                     	;# 
  1811  020D                     	;# 
  1812  0210                     	;# 
  1813  0211                     	;# 
  1814  0212                     	;# 
  1815  0213                     	;# 
  1816  0214                     	;# 
  1817  0215                     	;# 
  1818  0215                     	;# 
  1819  0216                     	;# 
  1820  0217                     	;# 
  1821  0291                     	;# 
  1822  0291                     	;# 
  1823  0292                     	;# 
  1824  0293                     	;# 
  1825  0294                     	;# 
  1826  0295                     	;# 
  1827  0295                     	;# 
  1828  0296                     	;# 
  1829  0298                     	;# 
  1830  0298                     	;# 
  1831  0299                     	;# 
  1832  029A                     	;# 
  1833  029B                     	;# 
  1834  029C                     	;# 
  1835  029C                     	;# 
  1836  029D                     	;# 
  1837  029E                     	;# 
  1838  029F                     	;# 
  1839  0311                     	;# 
  1840  0311                     	;# 
  1841  0312                     	;# 
  1842  0313                     	;# 
  1843  0314                     	;# 
  1844  0315                     	;# 
  1845  0315                     	;# 
  1846  0316                     	;# 
  1847  0318                     	;# 
  1848  0318                     	;# 
  1849  0319                     	;# 
  1850  031A                     	;# 
  1851  031C                     	;# 
  1852  031C                     	;# 
  1853  031D                     	;# 
  1854  031E                     	;# 
  1855  0394                     	;# 
  1856  0395                     	;# 
  1857  0396                     	;# 
  1858  0415                     	;# 
  1859  0416                     	;# 
  1860  0417                     	;# 
  1861  041C                     	;# 
  1862  041D                     	;# 
  1863  041E                     	;# 
  1864  0791                     	;# 
  1865  0792                     	;# 
  1866  0793                     	;# 
  1867  0794                     	;# 
  1868  0795                     	;# 
  1869  0798                     	;# 
  1870  0799                     	;# 
  1871  07A0                     	;# 
  1872  07A1                     	;# 
  1873  07A3                     	;# 
  1874  07A4                     	;# 
  1875  07A6                     	;# 
  1876  07A7                     	;# 
  1877  07A9                     	;# 
  1878  07AA                     	;# 
  1879  0FE4                     	;# 
  1880  0FE5                     	;# 
  1881  0FE6                     	;# 
  1882  0FE7                     	;# 
  1883  0FE8                     	;# 
  1884  0FE9                     	;# 
  1885  0FEA                     	;# 
  1886  0FEB                     	;# 
  1887  0FED                     	;# 
  1888  0FEE                     	;# 
  1889  0FEF                     	;# 
  1890  0000                     	;# 
  1891  0001                     	;# 
  1892  0002                     	;# 
  1893  0003                     	;# 
  1894  0004                     	;# 
  1895  0005                     	;# 
  1896  0006                     	;# 
  1897  0007                     	;# 
  1898  0008                     	;# 
  1899  0009                     	;# 
  1900  000A                     	;# 
  1901  000B                     	;# 
  1902  000C                     	;# 
  1903  000D                     	;# 
  1904  000E                     	;# 
  1905  0010                     	;# 
  1906  0011                     	;# 
  1907  0012                     	;# 
  1908  0013                     	;# 
  1909  0015                     	;# 
  1910  0016                     	;# 
  1911  0016                     	;# 
  1912  0017                     	;# 
  1913  0018                     	;# 
  1914  0019                     	;# 
  1915  001A                     	;# 
  1916  001B                     	;# 
  1917  001C                     	;# 
  1918  001E                     	;# 
  1919  001F                     	;# 
  1920  008C                     	;# 
  1921  008D                     	;# 
  1922  008E                     	;# 
  1923  0090                     	;# 
  1924  0091                     	;# 
  1925  0092                     	;# 
  1926  0093                     	;# 
  1927  0095                     	;# 
  1928  0096                     	;# 
  1929  0097                     	;# 
  1930  0098                     	;# 
  1931  0099                     	;# 
  1932  009A                     	;# 
  1933  009B                     	;# 
  1934  009B                     	;# 
  1935  009C                     	;# 
  1936  009D                     	;# 
  1937  009E                     	;# 
  1938  010C                     	;# 
  1939  010D                     	;# 
  1940  010E                     	;# 
  1941  0110                     	;# 
  1942  0111                     	;# 
  1943  0112                     	;# 
  1944  0113                     	;# 
  1945  0114                     	;# 
  1946  0115                     	;# 
  1947  0116                     	;# 
  1948  0117                     	;# 
  1949  0118                     	;# 
  1950  0119                     	;# 
  1951  011A                     	;# 
  1952  011B                     	;# 
  1953  011D                     	;# 
  1954  018C                     	;# 
  1955  018D                     	;# 
  1956  0191                     	;# 
  1957  0191                     	;# 
  1958  0192                     	;# 
  1959  0193                     	;# 
  1960  0193                     	;# 
  1961  0193                     	;# 
  1962  0194                     	;# 
  1963  0195                     	;# 
  1964  0196                     	;# 
  1965  0199                     	;# 
  1966  019A                     	;# 
  1967  019B                     	;# 
  1968  019B                     	;# 
  1969  019B                     	;# 
  1970  019B                     	;# 
  1971  019C                     	;# 
  1972  019C                     	;# 
  1973  019D                     	;# 
  1974  019E                     	;# 
  1975  019F                     	;# 
  1976  020D                     	;# 
  1977  0210                     	;# 
  1978  0211                     	;# 
  1979  0212                     	;# 
  1980  0213                     	;# 
  1981  0214                     	;# 
  1982  0215                     	;# 
  1983  0215                     	;# 
  1984  0216                     	;# 
  1985  0217                     	;# 
  1986  0291                     	;# 
  1987  0291                     	;# 
  1988  0292                     	;# 
  1989  0293                     	;# 
  1990  0294                     	;# 
  1991  0295                     	;# 
  1992  0295                     	;# 
  1993  0296                     	;# 
  1994  0298                     	;# 
  1995  0298                     	;# 
  1996  0299                     	;# 
  1997  029A                     	;# 
  1998  029B                     	;# 
  1999  029C                     	;# 
  2000  029C                     	;# 
  2001  029D                     	;# 
  2002  029E                     	;# 
  2003  029F                     	;# 
  2004  0311                     	;# 
  2005  0311                     	;# 
  2006  0312                     	;# 
  2007  0313                     	;# 
  2008  0314                     	;# 
  2009  0315                     	;# 
  2010  0315                     	;# 
  2011  0316                     	;# 
  2012  0318                     	;# 
  2013  0318                     	;# 
  2014  0319                     	;# 
  2015  031A                     	;# 
  2016  031C                     	;# 
  2017  031C                     	;# 
  2018  031D                     	;# 
  2019  031E                     	;# 
  2020  0394                     	;# 
  2021  0395                     	;# 
  2022  0396                     	;# 
  2023  0415                     	;# 
  2024  0416                     	;# 
  2025  0417                     	;# 
  2026  041C                     	;# 
  2027  041D                     	;# 
  2028  041E                     	;# 
  2029  0791                     	;# 
  2030  0792                     	;# 
  2031  0793                     	;# 
  2032  0794                     	;# 
  2033  0795                     	;# 
  2034  0798                     	;# 
  2035  0799                     	;# 
  2036  07A0                     	;# 
  2037  07A1                     	;# 
  2038  07A3                     	;# 
  2039  07A4                     	;# 
  2040  07A6                     	;# 
  2041  07A7                     	;# 
  2042  07A9                     	;# 
  2043  07AA                     	;# 
  2044  0FE4                     	;# 
  2045  0FE5                     	;# 
  2046  0FE6                     	;# 
  2047  0FE7                     	;# 
  2048  0FE8                     	;# 
  2049  0FE9                     	;# 
  2050  0FEA                     	;# 
  2051  0FEB                     	;# 
  2052  0FED                     	;# 
  2053  0FEE                     	;# 
  2054  0FEF                     	;# 
  2055  0000                     	;# 
  2056  0001                     	;# 
  2057  0002                     	;# 
  2058  0003                     	;# 
  2059  0004                     	;# 
  2060  0005                     	;# 
  2061  0006                     	;# 
  2062  0007                     	;# 
  2063  0008                     	;# 
  2064  0009                     	;# 
  2065  000A                     	;# 
  2066  000B                     	;# 
  2067  000C                     	;# 
  2068  000D                     	;# 
  2069  000E                     	;# 
  2070  0010                     	;# 
  2071  0011                     	;# 
  2072  0012                     	;# 
  2073  0013                     	;# 
  2074  0015                     	;# 
  2075  0016                     	;# 
  2076  0016                     	;# 
  2077  0017                     	;# 
  2078  0018                     	;# 
  2079  0019                     	;# 
  2080  001A                     	;# 
  2081  001B                     	;# 
  2082  001C                     	;# 
  2083  001E                     	;# 
  2084  001F                     	;# 
  2085  008C                     	;# 
  2086  008D                     	;# 
  2087  008E                     	;# 
  2088  0090                     	;# 
  2089  0091                     	;# 
  2090  0092                     	;# 
  2091  0093                     	;# 
  2092  0095                     	;# 
  2093  0096                     	;# 
  2094  0097                     	;# 
  2095  0098                     	;# 
  2096  0099                     	;# 
  2097  009A                     	;# 
  2098  009B                     	;# 
  2099  009B                     	;# 
  2100  009C                     	;# 
  2101  009D                     	;# 
  2102  009E                     	;# 
  2103  010C                     	;# 
  2104  010D                     	;# 
  2105  010E                     	;# 
  2106  0110                     	;# 
  2107  0111                     	;# 
  2108  0112                     	;# 
  2109  0113                     	;# 
  2110  0114                     	;# 
  2111  0115                     	;# 
  2112  0116                     	;# 
  2113  0117                     	;# 
  2114  0118                     	;# 
  2115  0119                     	;# 
  2116  011A                     	;# 
  2117  011B                     	;# 
  2118  011D                     	;# 
  2119  018C                     	;# 
  2120  018D                     	;# 
  2121  0191                     	;# 
  2122  0191                     	;# 
  2123  0192                     	;# 
  2124  0193                     	;# 
  2125  0193                     	;# 
  2126  0193                     	;# 
  2127  0194                     	;# 
  2128  0195                     	;# 
  2129  0196                     	;# 
  2130  0199                     	;# 
  2131  019A                     	;# 
  2132  019B                     	;# 
  2133  019B                     	;# 
  2134  019B                     	;# 
  2135  019B                     	;# 
  2136  019C                     	;# 
  2137  019C                     	;# 
  2138  019D                     	;# 
  2139  019E                     	;# 
  2140  019F                     	;# 
  2141  020D                     	;# 
  2142  0210                     	;# 
  2143  0211                     	;# 
  2144  0212                     	;# 
  2145  0213                     	;# 
  2146  0214                     	;# 
  2147  0215                     	;# 
  2148  0215                     	;# 
  2149  0216                     	;# 
  2150  0217                     	;# 
  2151  0291                     	;# 
  2152  0291                     	;# 
  2153  0292                     	;# 
  2154  0293                     	;# 
  2155  0294                     	;# 
  2156  0295                     	;# 
  2157  0295                     	;# 
  2158  0296                     	;# 
  2159  0298                     	;# 
  2160  0298                     	;# 
  2161  0299                     	;# 
  2162  029A                     	;# 
  2163  029B                     	;# 
  2164  029C                     	;# 
  2165  029C                     	;# 
  2166  029D                     	;# 
  2167  029E                     	;# 
  2168  029F                     	;# 
  2169  0311                     	;# 
  2170  0311                     	;# 
  2171  0312                     	;# 
  2172  0313                     	;# 
  2173  0314                     	;# 
  2174  0315                     	;# 
  2175  0315                     	;# 
  2176  0316                     	;# 
  2177  0318                     	;# 
  2178  0318                     	;# 
  2179  0319                     	;# 
  2180  031A                     	;# 
  2181  031C                     	;# 
  2182  031C                     	;# 
  2183  031D                     	;# 
  2184  031E                     	;# 
  2185  0394                     	;# 
  2186  0395                     	;# 
  2187  0396                     	;# 
  2188  0415                     	;# 
  2189  0416                     	;# 
  2190  0417                     	;# 
  2191  041C                     	;# 
  2192  041D                     	;# 
  2193  041E                     	;# 
  2194  0791                     	;# 
  2195  0792                     	;# 
  2196  0793                     	;# 
  2197  0794                     	;# 
  2198  0795                     	;# 
  2199  0798                     	;# 
  2200  0799                     	;# 
  2201  07A0                     	;# 
  2202  07A1                     	;# 
  2203  07A3                     	;# 
  2204  07A4                     	;# 
  2205  07A6                     	;# 
  2206  07A7                     	;# 
  2207  07A9                     	;# 
  2208  07AA                     	;# 
  2209  0FE4                     	;# 
  2210  0FE5                     	;# 
  2211  0FE6                     	;# 
  2212  0FE7                     	;# 
  2213  0FE8                     	;# 
  2214  0FE9                     	;# 
  2215  0FEA                     	;# 
  2216  0FEB                     	;# 
  2217  0FED                     	;# 
  2218  0FEE                     	;# 
  2219  0FEF                     	;# 
  2220  0000                     	;# 
  2221  0001                     	;# 
  2222  0002                     	;# 
  2223  0003                     	;# 
  2224  0004                     	;# 
  2225  0005                     	;# 
  2226  0006                     	;# 
  2227  0007                     	;# 
  2228  0008                     	;# 
  2229  0009                     	;# 
  2230  000A                     	;# 
  2231  000B                     	;# 
  2232  000C                     	;# 
  2233  000D                     	;# 
  2234  000E                     	;# 
  2235  0010                     	;# 
  2236  0011                     	;# 
  2237  0012                     	;# 
  2238  0013                     	;# 
  2239  0015                     	;# 
  2240  0016                     	;# 
  2241  0016                     	;# 
  2242  0017                     	;# 
  2243  0018                     	;# 
  2244  0019                     	;# 
  2245  001A                     	;# 
  2246  001B                     	;# 
  2247  001C                     	;# 
  2248  001E                     	;# 
  2249  001F                     	;# 
  2250  008C                     	;# 
  2251  008D                     	;# 
  2252  008E                     	;# 
  2253  0090                     	;# 
  2254  0091                     	;# 
  2255  0092                     	;# 
  2256  0093                     	;# 
  2257  0095                     	;# 
  2258  0096                     	;# 
  2259  0097                     	;# 
  2260  0098                     	;# 
  2261  0099                     	;# 
  2262  009A                     	;# 
  2263  009B                     	;# 
  2264  009B                     	;# 
  2265  009C                     	;# 
  2266  009D                     	;# 
  2267  009E                     	;# 
  2268  010C                     	;# 
  2269  010D                     	;# 
  2270  010E                     	;# 
  2271  0110                     	;# 
  2272  0111                     	;# 
  2273  0112                     	;# 
  2274  0113                     	;# 
  2275  0114                     	;# 
  2276  0115                     	;# 
  2277  0116                     	;# 
  2278  0117                     	;# 
  2279  0118                     	;# 
  2280  0119                     	;# 
  2281  011A                     	;# 
  2282  011B                     	;# 
  2283  011D                     	;# 
  2284  018C                     	;# 
  2285  018D                     	;# 
  2286  0191                     	;# 
  2287  0191                     	;# 
  2288  0192                     	;# 
  2289  0193                     	;# 
  2290  0193                     	;# 
  2291  0193                     	;# 
  2292  0194                     	;# 
  2293  0195                     	;# 
  2294  0196                     	;# 
  2295  0199                     	;# 
  2296  019A                     	;# 
  2297  019B                     	;# 
  2298  019B                     	;# 
  2299  019B                     	;# 
  2300  019B                     	;# 
  2301  019C                     	;# 
  2302  019C                     	;# 
  2303  019D                     	;# 
  2304  019E                     	;# 
  2305  019F                     	;# 
  2306  020D                     	;# 
  2307  0210                     	;# 
  2308  0211                     	;# 
  2309  0212                     	;# 
  2310  0213                     	;# 
  2311  0214                     	;# 
  2312  0215                     	;# 
  2313  0215                     	;# 
  2314  0216                     	;# 
  2315  0217                     	;# 
  2316  0291                     	;# 
  2317  0291                     	;# 
  2318  0292                     	;# 
  2319  0293                     	;# 
  2320  0294                     	;# 
  2321  0295                     	;# 
  2322  0295                     	;# 
  2323  0296                     	;# 
  2324  0298                     	;# 
  2325  0298                     	;# 
  2326  0299                     	;# 
  2327  029A                     	;# 
  2328  029B                     	;# 
  2329  029C                     	;# 
  2330  029C                     	;# 
  2331  029D                     	;# 
  2332  029E                     	;# 
  2333  029F                     	;# 
  2334  0311                     	;# 
  2335  0311                     	;# 
  2336  0312                     	;# 
  2337  0313                     	;# 
  2338  0314                     	;# 
  2339  0315                     	;# 
  2340  0315                     	;# 
  2341  0316                     	;# 
  2342  0318                     	;# 
  2343  0318                     	;# 
  2344  0319                     	;# 
  2345  031A                     	;# 
  2346  031C                     	;# 
  2347  031C                     	;# 
  2348  031D                     	;# 
  2349  031E                     	;# 
  2350  0394                     	;# 
  2351  0395                     	;# 
  2352  0396                     	;# 
  2353  0415                     	;# 
  2354  0416                     	;# 
  2355  0417                     	;# 
  2356  041C                     	;# 
  2357  041D                     	;# 
  2358  041E                     	;# 
  2359  0791                     	;# 
  2360  0792                     	;# 
  2361  0793                     	;# 
  2362  0794                     	;# 
  2363  0795                     	;# 
  2364  0798                     	;# 
  2365  0799                     	;# 
  2366  07A0                     	;# 
  2367  07A1                     	;# 
  2368  07A3                     	;# 
  2369  07A4                     	;# 
  2370  07A6                     	;# 
  2371  07A7                     	;# 
  2372  07A9                     	;# 
  2373  07AA                     	;# 
  2374  0FE4                     	;# 
  2375  0FE5                     	;# 
  2376  0FE6                     	;# 
  2377  0FE7                     	;# 
  2378  0FE8                     	;# 
  2379  0FE9                     	;# 
  2380  0FEA                     	;# 
  2381  0FEB                     	;# 
  2382  0FED                     	;# 
  2383  0FEE                     	;# 
  2384  0FEF                     	;# 
  2385                           
  2386 ;; Function _rd1RegCompleteHandler is unused but had its address taken
  2387  0000                     
  2388 ;; Function _rd2RegCompleteHandler is unused but had its address taken
  2389  0000                     
  2390 ;; Function _wr1RegCompleteHandler is unused but had its address taken
  2391  0000                     
  2392 ;; Function _wr2RegCompleteHandler is unused but had its address taken
  2393  0000                     
  2394 ;; Function _rdBlkRegCompleteHandler is unused but had its address taken
  2395  0000                     
  2396 ;; Function _EUSART_DefaultFramingErrorHandler is unused but had its address taken
  2397  0000                     
  2398 ;; Function _EUSART_DefaultOverrunErrorHandler is unused but had its address taken
  2399  0000                     
  2400 ;; Function _EUSART_DefaultErrorHandler is unused but had its address taken
  2401  0000                     
  2402 ;; Function _I2C_DO_IDLE is unused but had its address taken
  2403  0000                     
  2404 ;; Function _I2C_DO_SEND_ADR_READ is unused but had its address taken
  2405  0000                     
  2406 ;; Function _I2C_DO_SEND_ADR_WRITE is unused but had its address taken
  2407  0000                     
  2408 ;; Function _I2C_DO_TX is unused but had its address taken
  2409  0000                     
  2410 ;; Function _I2C_DO_RX is unused but had its address taken
  2411  0000                     
  2412 ;; Function _I2C_DO_RCEN is unused but had its address taken
  2413  0000                     
  2414 ;; Function _I2C_DO_TX_EMPTY is unused but had its address taken
  2415  0000                     
  2416 ;; Function _I2C_DO_SEND_RESTART_READ is unused but had its address taken
  2417  0000                     
  2418 ;; Function _I2C_DO_SEND_RESTART_WRITE is unused but had its address taken
  2419  0000                     
  2420 ;; Function _I2C_DO_SEND_RESTART is unused but had its address taken
  2421  0000                     
  2422 ;; Function _I2C_DO_SEND_STOP is unused but had its address taken
  2423  0000                     
  2424 ;; Function _I2C_DO_RX_ACK is unused but had its address taken
  2425  0000                     
  2426 ;; Function _I2C_DO_RX_NACK_STOP is unused but had its address taken
  2427  0000                     
  2428 ;; Function _I2C_DO_RX_NACK_RESTART is unused but had its address taken
  2429  0000                     
  2430 ;; Function _I2C_DO_RESET is unused but had its address taken
  2431  0000                     
  2432 ;; Function _I2C_DO_ADDRESS_NACK is unused but had its address taken
  2433  0000                     
  2434 ;; Function _I2C_CallbackReturnStop is unused but had its address taken
  2435  0000                     
  2436 ;; Function _I2C_CallbackReturnReset is unused but had its address taken
  2437  0000                     
  2438                           	psect	stringtext1
  2439  0660                     __pstringtext1:
  2440  0660                     _i2c_fsmStateTable:
  2441  0660  3400               	retlw	0
  2442  0661  3400               	retlw	0
  2443  0662  3400               	retlw	0
  2444  0663  3400               	retlw	0
  2445  0664  3400               	retlw	0
  2446  0665  3400               	retlw	0
  2447  0666  3400               	retlw	0
  2448  0667  3400               	retlw	0
  2449  0668  3400               	retlw	0
  2450  0669  3400               	retlw	0
  2451  066A  3400               	retlw	0
  2452  066B  3400               	retlw	0
  2453  066C  3400               	retlw	0
  2454  066D  3400               	retlw	0
  2455  066E  3400               	retlw	0
  2456  066F  3400               	retlw	0
  2457  0670  3400               	retlw	0
  2458  0671  3400               	retlw	0
  2459  0672  3400               	retlw	0
  2460  0673  3400               	retlw	0
  2461  0674  3400               	retlw	0
  2462  0675  3400               	retlw	0
  2463  0676  3400               	retlw	0
  2464  0677  3400               	retlw	0
  2465  0678  3400               	retlw	0
  2466  0679  3400               	retlw	0
  2467  067A  3400               	retlw	0
  2468  067B  3400               	retlw	0
  2469  067C  3400               	retlw	0
  2470  067D  3400               	retlw	0
  2471  067E  3400               	retlw	0
  2472  067F  3400               	retlw	0
  2473  0680                     __end_of_i2c_fsmStateTable:
  2474  0013                     _PIR3bits	set	19
  2475  0019                     _T1GCONbits	set	25
  2476  0018                     _T1CONbits	set	24
  2477  0018                     _T1CON	set	24
  2478  0016                     _TMR1L	set	22
  2479  0017                     _TMR1H	set	23
  2480  0019                     _T1GCON	set	25
  2481  0015                     _TMR0	set	21
  2482  0012                     _PIR2bits	set	18
  2483  0011                     _PIR1bits	set	17
  2484  000B                     _INTCONbits	set	11
  2485  0093                     _PIE3bits	set	147
  2486  0095                     _OPTION_REG	set	149
  2487  0097                     _WDTCON	set	151
  2488  0098                     _OSCTUNE	set	152
  2489  0099                     _OSCCON	set	153
  2490  0091                     _PIE1bits	set	145
  2491  0095                     _OPTION_REGbits	set	149
  2492  008E                     _TRISC	set	142
  2493  008D                     _TRISB	set	141
  2494  008C                     _TRISA	set	140
  2495  0090                     _TRISE	set	144
  2496  04D6                     _PLLR	set	1238
  2497  0119                     _DACCON1	set	281
  2498  0118                     _DACCON0	set	280
  2499  0116                     _BORCON	set	278
  2500  0117                     _FVRCONbits	set	279
  2501  0117                     _FVRCON	set	279
  2502  011D                     _APFCON	set	285
  2503  010E                     _LATC	set	270
  2504  010D                     _LATB	set	269
  2505  010C                     _LATA	set	268
  2506  0110                     _LATE	set	272
  2507  019A                     _TXREG	set	410
  2508  0199                     _RCREG	set	409
  2509  019D                     _RCSTAbits	set	413
  2510  019E                     _TXSTAbits	set	414
  2511  019C                     _SPBRGH	set	412
  2512  019B                     _SPBRGL	set	411
  2513  019E                     _TXSTA	set	414
  2514  019D                     _RCSTA	set	413
  2515  019F                     _BAUDCON	set	415
  2516  018C                     _ANSELA	set	396
  2517  018D                     _ANSELB	set	397
  2518  0196                     _EECON2	set	406
  2519  0193                     _EEDATL	set	403
  2520  0194                     _EEDATH	set	404
  2521  0195                     _EECON1bits	set	405
  2522  0192                     _EEADRH	set	402
  2523  0191                     _EEADRL	set	401
  2524  0214                     _SSPSTATbits	set	532
  2525  0216                     _SSPCON2bits	set	534
  2526  0211                     _SSPBUF	set	529
  2527  0215                     _SSPCON1bits	set	533
  2528  0212                     _SSPADD	set	530
  2529  0216                     _SSPCON2	set	534
  2530  0215                     _SSPCON1	set	533
  2531  0214                     _SSPSTAT	set	532
  2532  020D                     _WPUB	set	525
  2533  0210                     _WPUE	set	528
  2534  0319                     _CCPR4H	set	793
  2535  0318                     _CCPR4L	set	792
  2536  031A                     _CCP4CON	set	794
  2537  07A7                     _LCDDATA7bits	set	1959
  2538  07A1                     _LCDDATA1bits	set	1953
  2539  07A4                     _LCDDATA4bits	set	1956
  2540  07AA                     _LCDDATA10bits	set	1962
  2541  07A6                     _LCDDATA6bits	set	1958
  2542  07A0                     _LCDDATA0bits	set	1952
  2543  07A3                     _LCDDATA3bits	set	1955
  2544  07A9                     _LCDDATA9bits	set	1961
  2545  0792                     _LCDPSbits	set	1938
  2546  0795                     _LCDRLbits	set	1941
  2547  0794                     _LCDCSTbits	set	1940
  2548  0791                     _LCDCON	set	1937
  2549  0799                     _LCDSE1	set	1945
  2550  0798                     _LCDSE0	set	1944
  2551  07AA                     _LCDDATA10	set	1962
  2552  07A9                     _LCDDATA9	set	1961
  2553  07A7                     _LCDDATA7	set	1959
  2554  07A6                     _LCDDATA6	set	1958
  2555  07A4                     _LCDDATA4	set	1956
  2556  07A3                     _LCDDATA3	set	1955
  2557  07A1                     _LCDDATA1	set	1953
  2558  07A0                     _LCDDATA0	set	1952
  2559  0794                     _LCDCST	set	1940
  2560  0795                     _LCDRL	set	1941
  2561  0793                     _LCDREF	set	1939
  2562  0792                     _LCDPS	set	1938
  2563  0791                     _LCDCONbits	set	1937
  2564                           
  2565                           	psect	cinit
  2566  001B                     start_initialization:	
  2567                           ; #config settings
  2568                           
  2569  001B                     __initialization:
  2570                           
  2571                           ; Clear objects allocated to COMMON
  2572  001B  01FB               	clrf	__pbssCOMMON& (0+127)
  2573  001C  01FC               	clrf	(__pbssCOMMON+1)& (0+127)
  2574  001D  01FD               	clrf	(__pbssCOMMON+2)& (0+127)
  2575                           
  2576                           ; Clear objects allocated to BANK0
  2577  001E  3020               	movlw	low __pbssBANK0
  2578  001F  0084               	movwf	4
  2579  0020  3000               	movlw	high __pbssBANK0
  2580  0021  0085               	movwf	5
  2581  0022  302C               	movlw	44
  2582  0023  3187  2716  3180   	fcall	clear_ram0
  2583  0026                     end_of_initialization:	
  2584                           ;End of C runtime variable initialization code
  2585                           
  2586  0026                     __end_of__initialization:
  2587  0026  107E               	bcf	int$flags,0	;clear compiler interrupt flag (level 1)
  2588  0027  0020               	movlb	0
  2589  0028  3185  2D87         	ljmp	_main	;jump to C main() function
  2590                           
  2591                           	psect	bssCOMMON
  2592  007B                     __pbssCOMMON:
  2593  007B                     CCP4_CallBack@main$F1838@bit_count:
  2594  007B                     	ds	1
  2595  007C                     _ir_command_complement:
  2596  007C                     	ds	1
  2597  007D                     _timer0ReloadVal:
  2598  007D                     	ds	1
  2599                           
  2600                           	psect	bssBANK0
  2601  0020                     __pbssBANK0:
  2602  0020                     _I2C_Status:
  2603  0020                     	ds	29
  2604  003D                     _CCP4_CallBack:
  2605  003D                     	ds	2
  2606  003F                     _timer1ReloadVal:
  2607  003F                     	ds	2
  2608  0041                     _EUSART_ErrorHandler:
  2609  0041                     	ds	2
  2610  0043                     _EUSART_OverrunErrorHandler:
  2611  0043                     	ds	2
  2612  0045                     _EUSART_FramingErrorHandler:
  2613  0045                     	ds	2
  2614  0047                     _ir_flag:
  2615  0047                     	ds	1
  2616  0048                     _ir_command:
  2617  0048                     	ds	1
  2618  0049                     _ir_address_complement:
  2619  0049                     	ds	1
  2620  004A                     _ir_address:
  2621  004A                     	ds	1
  2622  004B                     _eusartRxLastError:
  2623  004B                     	ds	1
  2624                           
  2625                           	psect	clrtext
  2626  0716                     clear_ram0:	
  2627                           ;	Called with FSR0 containing the base address, and
  2628                           ;	WREG with the size to clear
  2629                           
  2630  0716  0064               	clrwdt	;clear the watchdog before getting into this loop
  2631  0717                     clrloop0:
  2632  0717  0180               	clrf	0	;clear RAM location pointed to by FSR
  2633  0718  3101               	addfsr 0,1
  2634  0719  0B89               	decfsz	9,f	;Have we reached the end of clearing yet?
  2635  071A  2F17               	goto	clrloop0	;have we reached the end yet?
  2636  071B  3400               	retlw	0	;all done for this memory range, return
  2637                           
  2638                           	psect	cstackCOMMON
  2639  0070                     __pcstackCOMMON:
  2640  0070                     ?_OSCILLATOR_Initialize:
  2641  0070                     ?_WDT_Initialize:	
  2642                           ; 1 bytes @ 0x0
  2643                           
  2644  0070                     ?_DAC_Initialize:	
  2645                           ; 1 bytes @ 0x0
  2646                           
  2647  0070                     ?_CCP4_Initialize:	
  2648                           ; 1 bytes @ 0x0
  2649                           
  2650  0070                     ?_TMR1_Initialize:	
  2651                           ; 1 bytes @ 0x0
  2652                           
  2653  0070                     ?_TMR0_Initialize:	
  2654                           ; 1 bytes @ 0x0
  2655                           
  2656  0070                     ?_reverseBits:	
  2657                           ; 1 bytes @ 0x0
  2658                           
  2659  0070                     ?_LCD_Digit1Num:	
  2660                           ; 1 bytes @ 0x0
  2661                           
  2662  0070                     ?_LCD_Digit2Num:	
  2663                           ; 1 bytes @ 0x0
  2664                           
  2665  0070                     ?_LCD_Digit3Num:	
  2666                           ; 1 bytes @ 0x0
  2667                           
  2668  0070                     ?_LCD_Digit4Num:	
  2669                           ; 1 bytes @ 0x0
  2670                           
  2671  0070                     ?_LCD_Initialize:	
  2672                           ; 1 bytes @ 0x0
  2673                           
  2674  0070                     ?_PIN_MANAGER_Initialize:	
  2675                           ; 1 bytes @ 0x0
  2676                           
  2677  0070                     ?_EUSART_Initialize:	
  2678                           ; 1 bytes @ 0x0
  2679                           
  2680  0070                     ?_FVR_Initialize:	
  2681                           ; 1 bytes @ 0x0
  2682                           
  2683  0070                     ?_I2C_Initialize:	
  2684                           ; 1 bytes @ 0x0
  2685                           
  2686  0070                     ?_SYSTEM_Initialize:	
  2687                           ; 1 bytes @ 0x0
  2688                           
  2689  0070                     ?_TMR1_WriteTimer:	
  2690                           ; 1 bytes @ 0x0
  2691                           
  2692  0070                     ?_CCP4_CaptureISR:	
  2693                           ; 1 bytes @ 0x0
  2694                           
  2695  0070                     ?_INTERRUPT_InterruptManager:	
  2696                           ; 1 bytes @ 0x0
  2697                           
  2698  0070                     ?_main:	
  2699                           ; 1 bytes @ 0x0
  2700                           
  2701  0070                     TMR1_WriteTimer@timerVal:	
  2702                           ; 1 bytes @ 0x0
  2703                           
  2704                           
  2705                           ; 2 bytes @ 0x0
  2706  0070                     	ds	2
  2707  0072                     ?_CCP4_CallBack@main$F1840:
  2708  0072                     ??_TMR1_WriteTimer:	
  2709                           ; 1 bytes @ 0x2
  2710                           
  2711  0072                     ?_CCP4_DefaultCallBack:	
  2712                           ; 1 bytes @ 0x2
  2713                           
  2714  0072                     CCP4_DefaultCallBack@capturedValue:	
  2715                           ; 1 bytes @ 0x2
  2716                           
  2717  0072                     CCP4_CallBack@main$F1838@capturedValue:	
  2718                           ; 2 bytes @ 0x2
  2719                           
  2720                           
  2721                           ; 2 bytes @ 0x2
  2722  0072                     	ds	2
  2723  0074                     ??_CCP4_CallBack@main$F1842:
  2724  0074                     ??_CCP4_DefaultCallBack:	
  2725                           ; 1 bytes @ 0x4
  2726                           
  2727                           
  2728                           ; 1 bytes @ 0x4
  2729  0074                     	ds	4
  2730  0078                     ??_CCP4_CaptureISR:
  2731                           
  2732                           ; 1 bytes @ 0x8
  2733  0078                     	ds	1
  2734  0079                     CCP4_CaptureISR@module:
  2735                           
  2736                           ; 2 bytes @ 0x9
  2737  0079                     	ds	2
  2738  007B                     ??_INTERRUPT_InterruptManager:
  2739                           
  2740                           	psect	cstackBANK0
  2741  004C                     __pcstackBANK0:	
  2742                           ; 1 bytes @ 0xB
  2743                           
  2744  004C                     ?_EUSART_SetFramingErrorHandler:
  2745  004C                     ?_EUSART_SetOverrunErrorHandler:	
  2746                           ; 1 bytes @ 0x0
  2747                           
  2748  004C                     ?_EUSART_SetErrorHandler:	
  2749                           ; 1 bytes @ 0x0
  2750                           
  2751  004C                     ??_OSCILLATOR_Initialize:	
  2752                           ; 1 bytes @ 0x0
  2753                           
  2754  004C                     ??_WDT_Initialize:	
  2755                           ; 1 bytes @ 0x0
  2756                           
  2757  004C                     ??_DAC_Initialize:	
  2758                           ; 1 bytes @ 0x0
  2759                           
  2760  004C                     ??_TMR1_Initialize:	
  2761                           ; 1 bytes @ 0x0
  2762                           
  2763  004C                     ??_TMR0_Initialize:	
  2764                           ; 1 bytes @ 0x0
  2765                           
  2766  004C                     ?_CCP4_SetCallBack:	
  2767                           ; 1 bytes @ 0x0
  2768                           
  2769  004C                     ??_reverseBits:	
  2770                           ; 1 bytes @ 0x0
  2771                           
  2772  004C                     ??_LCD_Digit1Num:	
  2773                           ; 1 bytes @ 0x0
  2774                           
  2775  004C                     ??_LCD_Digit2Num:	
  2776                           ; 1 bytes @ 0x0
  2777                           
  2778  004C                     ??_LCD_Digit3Num:	
  2779                           ; 1 bytes @ 0x0
  2780                           
  2781  004C                     ??_LCD_Digit4Num:	
  2782                           ; 1 bytes @ 0x0
  2783                           
  2784  004C                     ??_LCD_Initialize:	
  2785                           ; 1 bytes @ 0x0
  2786                           
  2787  004C                     ??_PIN_MANAGER_Initialize:	
  2788                           ; 1 bytes @ 0x0
  2789                           
  2790  004C                     ??_FVR_Initialize:	
  2791                           ; 1 bytes @ 0x0
  2792                           
  2793  004C                     ??_I2C_Initialize:	
  2794                           ; 1 bytes @ 0x0
  2795                           
  2796  004C                     EUSART_SetFramingErrorHandler@interruptHandler:	
  2797                           ; 1 bytes @ 0x0
  2798                           
  2799  004C                     EUSART_SetOverrunErrorHandler@interruptHandler:	
  2800                           ; 2 bytes @ 0x0
  2801                           
  2802  004C                     EUSART_SetErrorHandler@interruptHandler:	
  2803                           ; 2 bytes @ 0x0
  2804                           
  2805  004C                     CCP4_SetCallBack@customCallBack:	
  2806                           ; 2 bytes @ 0x0
  2807                           
  2808                           
  2809                           ; 2 bytes @ 0x0
  2810  004C                     	ds	2
  2811  004E                     ??_EUSART_SetFramingErrorHandler:
  2812  004E                     ??_EUSART_SetOverrunErrorHandler:	
  2813                           ; 1 bytes @ 0x2
  2814                           
  2815  004E                     ??_EUSART_SetErrorHandler:	
  2816                           ; 1 bytes @ 0x2
  2817                           
  2818  004E                     ??_CCP4_Initialize:	
  2819                           ; 1 bytes @ 0x2
  2820                           
  2821  004E                     ??_CCP4_SetCallBack:	
  2822                           ; 1 bytes @ 0x2
  2823                           
  2824  004E                     ??_EUSART_Initialize:	
  2825                           ; 1 bytes @ 0x2
  2826                           
  2827  004E                     ??_SYSTEM_Initialize:	
  2828                           ; 1 bytes @ 0x2
  2829                           
  2830  004E                     LCD_Digit1Num@num:	
  2831                           ; 1 bytes @ 0x2
  2832                           
  2833  004E                     LCD_Digit2Num@num:	
  2834                           ; 1 bytes @ 0x2
  2835                           
  2836  004E                     LCD_Digit3Num@num:	
  2837                           ; 1 bytes @ 0x2
  2838                           
  2839  004E                     LCD_Digit4Num@num:	
  2840                           ; 1 bytes @ 0x2
  2841                           
  2842                           
  2843                           ; 1 bytes @ 0x2
  2844  004E                     	ds	1
  2845  004F                     reverseBits@b:
  2846                           
  2847                           ; 1 bytes @ 0x3
  2848  004F                     	ds	1
  2849  0050                     ??_main:
  2850                           
  2851                           ; 1 bytes @ 0x4
  2852  0050                     	ds	3
  2853  0053                     main@temp8:
  2854                           
  2855                           ; 1 bytes @ 0x7
  2856  0053                     	ds	1
  2857                           
  2858                           	psect	maintext
  2859  0587                     __pmaintext:	
  2860 ;;
  2861 ;;Main: autosize = 0, tempsize = 1, incstack = 0, save=0
  2862 ;;
  2863 ;; *************** function _main *****************
  2864 ;; Defined at:
  2865 ;;		line 70 in file "main.c"
  2866 ;; Parameters:    Size  Location     Type
  2867 ;;		None
  2868 ;; Auto vars:     Size  Location     Type
  2869 ;;  temp_num        2    0        unsigned short 
  2870 ;;  bcd_num         2    0        unsigned short 
  2871 ;;  temp8           1    7[BANK0 ] unsigned char 
  2872 ;; Return value:  Size  Location     Type
  2873 ;;                  1    wreg      void 
  2874 ;; Registers used:
  2875 ;;		wreg, fsr0l, fsr0h, status,2, status,0, pclath, cstack
  2876 ;; Tracked objects:
  2877 ;;		On entry : B1F/0
  2878 ;;		On exit  : 0/0
  2879 ;;		Unchanged: 0/0
  2880 ;; Data sizes:     COMMON   BANK0   BANK1   BANK2   BANK3   BANK4   BANK5   BANK6   BANK7   BANK8   BANK9  BANK10  BANK1
      +1  BANK12
  2881 ;;      Params:         0       0       0       0       0       0       0       0       0       0       0       0       
      +0       0
  2882 ;;      Locals:         0       3       0       0       0       0       0       0       0       0       0       0       
      +0       0
  2883 ;;      Temps:          0       1       0       0       0       0       0       0       0       0       0       0       
      +0       0
  2884 ;;      Totals:         0       4       0       0       0       0       0       0       0       0       0       0       
      +0       0
  2885 ;;Total ram usage:        4 bytes
  2886 ;; Hardware stack levels required when called:    7
  2887 ;; This function calls:
  2888 ;;		_CCP4_SetCallBack
  2889 ;;		_LCD_Digit1Num
  2890 ;;		_LCD_Digit2Num
  2891 ;;		_LCD_Digit3Num
  2892 ;;		_LCD_Digit4Num
  2893 ;;		_SYSTEM_Initialize
  2894 ;;		_reverseBits
  2895 ;; This function is called by:
  2896 ;;		Startup code after reset
  2897 ;; This function uses a non-reentrant model
  2898 ;;
  2899                           
  2900                           
  2901                           ;psect for function _main
  2902  0587                     _main:
  2903  0587                     l3297:	
  2904                           ;incstack = 0
  2905                           ; Regs used in _main: [wreg-fsr0h+status,2+status,0+pclath+cstack]
  2906                           
  2907  0587                     l3299:
  2908                           
  2909                           ;main.c: 73:     uint8_t temp8;;main.c: 75:     SYSTEM_Initialize();
  2910  0587  3186  263E  3185   	fcall	_SYSTEM_Initialize
  2911  058A                     l3301:
  2912                           
  2913                           ;main.c: 77:     ir_flag = IR_NONE;
  2914  058A  0020               	movlb	0	; select bank0
  2915  058B  01C7               	clrf	_ir_flag	;volatile
  2916  058C                     l3303:
  2917                           
  2918                           ;main.c: 78:     ir_address = ir_address_complement = ir_command = ir_command_complement
      +                           = 0;
  2919  058C  01FC               	clrf	_ir_command_complement	;volatile
  2920  058D  01C8               	clrf	_ir_command	;volatile
  2921  058E  01C9               	clrf	_ir_address_complement	;volatile
  2922  058F  01CA               	clrf	_ir_address	;volatile
  2923  0590                     l3305:
  2924                           
  2925                           ;main.c: 80:     CCP4_SetCallBack(CCP4_CallBack);
  2926  0590  3006               	movlw	low _CCP4_CallBack@main$F1838
  2927  0591  00CC               	movwf	CCP4_SetCallBack@customCallBack
  2928  0592  3002               	movlw	high _CCP4_CallBack@main$F1838
  2929  0593  00CD               	movwf	CCP4_SetCallBack@customCallBack+1
  2930  0594  3187  2734  3185   	fcall	_CCP4_SetCallBack
  2931  0597                     l3307:
  2932                           
  2933                           ;main.c: 86:     (INTCONbits.GIE = 1);
  2934  0597  178B               	bsf	11,7	;volatile
  2935  0598                     l3309:
  2936                           
  2937                           ;main.c: 89:     (INTCONbits.PEIE = 1);
  2938  0598  170B               	bsf	11,6	;volatile
  2939  0599                     l1012:	
  2940                           ;main.c: 97:     while (1)
  2941                           
  2942  0599  0064               	clrwdt	;# 
  2943  059A                     l3311:
  2944                           
  2945                           ;main.c: 119:         if(ir_flag == IR_DONE || ir_flag == IR_REPEAT){
  2946  059A  3002               	movlw	2
  2947  059B  0020               	movlb	0	; select bank0
  2948  059C  0647               	xorwf	_ir_flag,w	;volatile
  2949  059D  1903               	btfsc	3,2
  2950  059E  2DA0               	goto	u1101
  2951  059F  2DA1               	goto	u1100
  2952  05A0                     u1101:
  2953  05A0  2DA7               	goto	l3315
  2954  05A1                     u1100:
  2955  05A1                     l3313:
  2956  05A1  3003               	movlw	3
  2957  05A2  0647               	xorwf	_ir_flag,w	;volatile
  2958  05A3  1D03               	btfss	3,2
  2959  05A4  2DA6               	goto	u1111
  2960  05A5  2DA7               	goto	u1110
  2961  05A6                     u1111:
  2962  05A6  2D99               	goto	l1012
  2963  05A7                     u1110:
  2964  05A7                     l3315:
  2965                           
  2966                           ;main.c: 121:             temp8 = reverseBits(ir_address);
  2967  05A7  084A               	movf	_ir_address,w	;volatile
  2968  05A8  3185  25E1  3185   	fcall	_reverseBits
  2969  05AB  0020               	movlb	0	; select bank0
  2970  05AC  00D0               	movwf	??_main
  2971  05AD  0850               	movf	??_main,w
  2972  05AE  00D3               	movwf	main@temp8
  2973  05AF                     l3317:
  2974                           
  2975                           ;main.c: 123:             LCD_Digit1Num((temp8 >> 4) & 0x000F);
  2976  05AF  0853               	movf	main@temp8,w
  2977  05B0  00D0               	movwf	??_main
  2978  05B1  3004               	movlw	4
  2979  05B2                     u1125:
  2980  05B2  36D0               	lsrf	??_main,f
  2981  05B3  0B89               	decfsz	9,f
  2982  05B4  2DB2               	goto	u1125
  2983  05B5  0850               	movf	??_main,w
  2984  05B6  390F               	andlw	15
  2985  05B7  3184  24B0  3185   	fcall	_LCD_Digit1Num
  2986  05BA                     l3319:
  2987                           
  2988                           ;main.c: 124:             LCD_Digit2Num(temp8 & 0x000F);
  2989  05BA  0020               	movlb	0	; select bank0
  2990  05BB  0853               	movf	main@temp8,w
  2991  05BC  390F               	andlw	15
  2992  05BD  3183  23D9  3185   	fcall	_LCD_Digit2Num
  2993  05C0                     l3321:
  2994                           
  2995                           ;main.c: 126:             LCDDATA0bits.SEG4COM0 = 1;
  2996  05C0  002F               	movlb	15	; select bank15
  2997  05C1  1620               	bsf	32,4	;volatile
  2998                           
  2999                           ;main.c: 128:             temp8 = reverseBits(ir_command);
  3000  05C2  0020               	movlb	0	; select bank0
  3001  05C3  0848               	movf	_ir_command,w	;volatile
  3002  05C4  3185  25E1  3185   	fcall	_reverseBits
  3003  05C7  0020               	movlb	0	; select bank0
  3004  05C8  00D0               	movwf	??_main
  3005  05C9  0850               	movf	??_main,w
  3006  05CA  00D3               	movwf	main@temp8
  3007  05CB                     l3323:
  3008                           
  3009                           ;main.c: 130:             LCD_Digit3Num((temp8 >> 4) & 0x000F);
  3010  05CB  0853               	movf	main@temp8,w
  3011  05CC  00D0               	movwf	??_main
  3012  05CD  3004               	movlw	4
  3013  05CE                     u1135:
  3014  05CE  36D0               	lsrf	??_main,f
  3015  05CF  0B89               	decfsz	9,f
  3016  05D0  2DCE               	goto	u1135
  3017  05D1  0850               	movf	??_main,w
  3018  05D2  390F               	andlw	15
  3019  05D3  3183  2302  3185   	fcall	_LCD_Digit3Num
  3020  05D6                     l3325:
  3021                           
  3022                           ;main.c: 131:             LCD_Digit4Num(temp8 & 0x000F);
  3023  05D6  0020               	movlb	0	; select bank0
  3024  05D7  0853               	movf	main@temp8,w
  3025  05D8  390F               	andlw	15
  3026  05D9  3180  202A  3185   	fcall	_LCD_Digit4Num
  3027  05DC                     l3327:
  3028                           
  3029                           ;main.c: 133:             ir_flag = IR_NONE;
  3030  05DC  0020               	movlb	0	; select bank0
  3031  05DD  01C7               	clrf	_ir_flag	;volatile
  3032  05DE  2D99               	goto	l1012
  3033  05DF  3180  2819         	ljmp	start
  3034  05E1                     __end_of_main:
  3035                           
  3036                           	psect	text1
  3037  05E1                     __ptext1:	
  3038 ;; *************** function _reverseBits *****************
  3039 ;; Defined at:
  3040 ;;		line 332 in file "main.c"
  3041 ;; Parameters:    Size  Location     Type
  3042 ;;  b               1    wreg     unsigned char 
  3043 ;; Auto vars:     Size  Location     Type
  3044 ;;  b               1    3[BANK0 ] unsigned char 
  3045 ;; Return value:  Size  Location     Type
  3046 ;;                  1    wreg      unsigned char 
  3047 ;; Registers used:
  3048 ;;		wreg, status,2, status,0
  3049 ;; Tracked objects:
  3050 ;;		On entry : 0/0
  3051 ;;		On exit  : 0/0
  3052 ;;		Unchanged: 0/0
  3053 ;; Data sizes:     COMMON   BANK0   BANK1   BANK2   BANK3   BANK4   BANK5   BANK6   BANK7   BANK8   BANK9  BANK10  BANK1
      +1  BANK12
  3054 ;;      Params:         0       0       0       0       0       0       0       0       0       0       0       0       
      +0       0
  3055 ;;      Locals:         0       1       0       0       0       0       0       0       0       0       0       0       
      +0       0
  3056 ;;      Temps:          0       3       0       0       0       0       0       0       0       0       0       0       
      +0       0
  3057 ;;      Totals:         0       4       0       0       0       0       0       0       0       0       0       0       
      +0       0
  3058 ;;Total ram usage:        4 bytes
  3059 ;; Hardware stack levels used:    1
  3060 ;; Hardware stack levels required when called:    4
  3061 ;; This function calls:
  3062 ;;		Nothing
  3063 ;; This function is called by:
  3064 ;;		_main
  3065 ;; This function uses a non-reentrant model
  3066 ;;
  3067                           
  3068                           
  3069                           ;psect for function _reverseBits
  3070  05E1                     _reverseBits:
  3071                           
  3072                           ;incstack = 0
  3073                           ; Regs used in _reverseBits: [wreg+status,2+status,0]
  3074                           ;reverseBits@b stored from wreg
  3075  05E1  0020               	movlb	0	; select bank0
  3076  05E2  00CF               	movwf	reverseBits@b
  3077  05E3                     l3229:
  3078                           
  3079                           ;main.c: 333:    b = (b & 0b11110000) >> 4 | (b & 0b00001111) << 4;
  3080  05E3  084F               	movf	reverseBits@b,w
  3081  05E4  390F               	andlw	15
  3082  05E5  00CC               	movwf	??_reverseBits
  3083  05E6  3004               	movlw	4
  3084  05E7                     u1005:
  3085  05E7  35CC               	lslf	??_reverseBits,f
  3086  05E8  0B89               	decfsz	9,f
  3087  05E9  2DE7               	goto	u1005
  3088  05EA  084F               	movf	reverseBits@b,w
  3089  05EB  00CD               	movwf	??_reverseBits+1
  3090  05EC  3004               	movlw	4
  3091  05ED                     u1015:
  3092  05ED  36CD               	lsrf	??_reverseBits+1,f
  3093  05EE  0B89               	decfsz	9,f
  3094  05EF  2DED               	goto	u1015
  3095  05F0  084D               	movf	??_reverseBits+1,w
  3096  05F1  390F               	andlw	15
  3097  05F2  044C               	iorwf	??_reverseBits,w
  3098  05F3  00CE               	movwf	??_reverseBits+2
  3099  05F4  084E               	movf	??_reverseBits+2,w
  3100  05F5  00CF               	movwf	reverseBits@b
  3101                           
  3102                           ;main.c: 334:    b = (b & 0b11001100) >> 2 | (b & 0b00110011) << 2;
  3103  05F6  084F               	movf	reverseBits@b,w
  3104  05F7  3933               	andlw	51
  3105  05F8  00CC               	movwf	??_reverseBits
  3106  05F9  3002               	movlw	2
  3107  05FA                     u1025:
  3108  05FA  35CC               	lslf	??_reverseBits,f
  3109  05FB  0B89               	decfsz	9,f
  3110  05FC  2DFA               	goto	u1025
  3111  05FD  084F               	movf	reverseBits@b,w
  3112  05FE  00CD               	movwf	??_reverseBits+1
  3113  05FF  3002               	movlw	2
  3114  0600                     u1035:
  3115  0600  36CD               	lsrf	??_reverseBits+1,f
  3116  0601  0B89               	decfsz	9,f
  3117  0602  2E00               	goto	u1035
  3118  0603  084D               	movf	??_reverseBits+1,w
  3119  0604  3933               	andlw	51
  3120  0605  044C               	iorwf	??_reverseBits,w
  3121  0606  00CE               	movwf	??_reverseBits+2
  3122  0607  084E               	movf	??_reverseBits+2,w
  3123  0608  00CF               	movwf	reverseBits@b
  3124                           
  3125                           ;main.c: 335:    b = (b & 0b10101010) >> 1 | (b & 0b01010101) << 1;
  3126  0609  084F               	movf	reverseBits@b,w
  3127  060A  3955               	andlw	85
  3128  060B  00CC               	movwf	??_reverseBits
  3129  060C  3001               	movlw	1
  3130  060D                     u1045:
  3131  060D  35CC               	lslf	??_reverseBits,f
  3132  060E  0B89               	decfsz	9,f
  3133  060F  2E0D               	goto	u1045
  3134  0610  364F               	lsrf	reverseBits@b,w
  3135  0611  3955               	andlw	85
  3136  0612  044C               	iorwf	??_reverseBits,w
  3137  0613  00CD               	movwf	??_reverseBits+1
  3138  0614  084D               	movf	??_reverseBits+1,w
  3139  0615  00CF               	movwf	reverseBits@b
  3140  0616                     l3231:
  3141                           
  3142                           ;main.c: 336:    return b;
  3143  0616  084F               	movf	reverseBits@b,w
  3144  0617                     l1193:
  3145  0617  0008               	return
  3146  0618                     __end_of_reverseBits:
  3147                           
  3148                           	psect	text2
  3149  063E                     __ptext2:	
  3150 ;; *************** function _SYSTEM_Initialize *****************
  3151 ;; Defined at:
  3152 ;;		line 50 in file "mcc_generated_files/mcc.c"
  3153 ;; Parameters:    Size  Location     Type
  3154 ;;		None
  3155 ;; Auto vars:     Size  Location     Type
  3156 ;;		None
  3157 ;; Return value:  Size  Location     Type
  3158 ;;                  1    wreg      void 
  3159 ;; Registers used:
  3160 ;;		wreg, status,2, status,0, pclath, cstack
  3161 ;; Tracked objects:
  3162 ;;		On entry : 0/0
  3163 ;;		On exit  : 0/0
  3164 ;;		Unchanged: 0/0
  3165 ;; Data sizes:     COMMON   BANK0   BANK1   BANK2   BANK3   BANK4   BANK5   BANK6   BANK7   BANK8   BANK9  BANK10  BANK1
      +1  BANK12
  3166 ;;      Params:         0       0       0       0       0       0       0       0       0       0       0       0       
      +0       0
  3167 ;;      Locals:         0       0       0       0       0       0       0       0       0       0       0       0       
      +0       0
  3168 ;;      Temps:          0       0       0       0       0       0       0       0       0       0       0       0       
      +0       0
  3169 ;;      Totals:         0       0       0       0       0       0       0       0       0       0       0       0       
      +0       0
  3170 ;;Total ram usage:        0 bytes
  3171 ;; Hardware stack levels used:    1
  3172 ;; Hardware stack levels required when called:    6
  3173 ;; This function calls:
  3174 ;;		_CCP4_Initialize
  3175 ;;		_DAC_Initialize
  3176 ;;		_EUSART_Initialize
  3177 ;;		_FVR_Initialize
  3178 ;;		_I2C_Initialize
  3179 ;;		_LCD_Initialize
  3180 ;;		_OSCILLATOR_Initialize
  3181 ;;		_PIN_MANAGER_Initialize
  3182 ;;		_TMR0_Initialize
  3183 ;;		_TMR1_Initialize
  3184 ;;		_WDT_Initialize
  3185 ;; This function is called by:
  3186 ;;		_main
  3187 ;; This function uses a non-reentrant model
  3188 ;;
  3189                           
  3190                           
  3191                           ;psect for function _SYSTEM_Initialize
  3192  063E                     _SYSTEM_Initialize:
  3193  063E                     l3221:	
  3194                           ;incstack = 0
  3195                           ; Regs used in _SYSTEM_Initialize: [wreg+status,2+status,0+pclath+cstack]
  3196                           
  3197                           
  3198                           ;mcc_generated_files/mcc.c: 53:     I2C_Initialize();
  3199  063E  3187  270D  3186   	fcall	_I2C_Initialize
  3200                           
  3201                           ;mcc_generated_files/mcc.c: 54:     PIN_MANAGER_Initialize();
  3202  0641  3186  2680  3186   	fcall	_PIN_MANAGER_Initialize
  3203                           
  3204                           ;mcc_generated_files/mcc.c: 55:     OSCILLATOR_Initialize();
  3205  0644  3186  26F7  3186   	fcall	_OSCILLATOR_Initialize
  3206                           
  3207                           ;mcc_generated_files/mcc.c: 56:     WDT_Initialize();
  3208  0647  3187  273A  3186   	fcall	_WDT_Initialize
  3209                           
  3210                           ;mcc_generated_files/mcc.c: 57:     DAC_Initialize();
  3211  064A  3187  272E  3186   	fcall	_DAC_Initialize
  3212                           
  3213                           ;mcc_generated_files/mcc.c: 58:     FVR_Initialize();
  3214  064D  3187  273E  3186   	fcall	_FVR_Initialize
  3215                           
  3216                           ;mcc_generated_files/mcc.c: 59:     CCP4_Initialize();
  3217  0650  3186  26C8  3186   	fcall	_CCP4_Initialize
  3218                           
  3219                           ;mcc_generated_files/mcc.c: 60:     TMR1_Initialize();
  3220  0653  3186  26EB  3186   	fcall	_TMR1_Initialize
  3221                           
  3222                           ;mcc_generated_files/mcc.c: 61:     TMR0_Initialize();
  3223  0656  3187  2703  3186   	fcall	_TMR0_Initialize
  3224                           
  3225                           ;mcc_generated_files/mcc.c: 62:     EUSART_Initialize();
  3226  0659  3186  2618  3186   	fcall	_EUSART_Initialize
  3227                           
  3228                           ;mcc_generated_files/mcc.c: 63:     LCD_Initialize();
  3229  065C  3186  269A  3186   	fcall	_LCD_Initialize
  3230  065F                     l828:
  3231  065F  0008               	return
  3232  0660                     __end_of_SYSTEM_Initialize:
  3233                           
  3234                           	psect	text3
  3235  073A                     __ptext3:	
  3236 ;; *************** function _WDT_Initialize *****************
  3237 ;; Defined at:
  3238 ;;		line 80 in file "mcc_generated_files/mcc.c"
  3239 ;; Parameters:    Size  Location     Type
  3240 ;;		None
  3241 ;; Auto vars:     Size  Location     Type
  3242 ;;		None
  3243 ;; Return value:  Size  Location     Type
  3244 ;;                  1    wreg      void 
  3245 ;; Registers used:
  3246 ;;		wreg
  3247 ;; Tracked objects:
  3248 ;;		On entry : 0/0
  3249 ;;		On exit  : 0/0
  3250 ;;		Unchanged: 0/0
  3251 ;; Data sizes:     COMMON   BANK0   BANK1   BANK2   BANK3   BANK4   BANK5   BANK6   BANK7   BANK8   BANK9  BANK10  BANK1
      +1  BANK12
  3252 ;;      Params:         0       0       0       0       0       0       0       0       0       0       0       0       
      +0       0
  3253 ;;      Locals:         0       0       0       0       0       0       0       0       0       0       0       0       
      +0       0
  3254 ;;      Temps:          0       0       0       0       0       0       0       0       0       0       0       0       
      +0       0
  3255 ;;      Totals:         0       0       0       0       0       0       0       0       0       0       0       0       
      +0       0
  3256 ;;Total ram usage:        0 bytes
  3257 ;; Hardware stack levels used:    1
  3258 ;; Hardware stack levels required when called:    4
  3259 ;; This function calls:
  3260 ;;		Nothing
  3261 ;; This function is called by:
  3262 ;;		_SYSTEM_Initialize
  3263 ;; This function uses a non-reentrant model
  3264 ;;
  3265                           
  3266                           
  3267                           ;psect for function _WDT_Initialize
  3268  073A                     _WDT_Initialize:
  3269  073A                     l3109:	
  3270                           ;incstack = 0
  3271                           ; Regs used in _WDT_Initialize: [wreg]
  3272                           
  3273                           
  3274                           ;mcc_generated_files/mcc.c: 83:     WDTCON = 0x16;
  3275  073A  3016               	movlw	22
  3276  073B  0021               	movlb	1	; select bank1
  3277  073C  0097               	movwf	23	;volatile
  3278  073D                     l837:
  3279  073D  0008               	return
  3280  073E                     __end_of_WDT_Initialize:
  3281                           
  3282                           	psect	text4
  3283  06EB                     __ptext4:	
  3284 ;; *************** function _TMR1_Initialize *****************
  3285 ;; Defined at:
  3286 ;;		line 63 in file "mcc_generated_files/tmr1.c"
  3287 ;; Parameters:    Size  Location     Type
  3288 ;;		None
  3289 ;; Auto vars:     Size  Location     Type
  3290 ;;		None
  3291 ;; Return value:  Size  Location     Type
  3292 ;;                  1    wreg      void 
  3293 ;; Registers used:
  3294 ;;		wreg, status,2
  3295 ;; Tracked objects:
  3296 ;;		On entry : 0/0
  3297 ;;		On exit  : 0/0
  3298 ;;		Unchanged: 0/0
  3299 ;; Data sizes:     COMMON   BANK0   BANK1   BANK2   BANK3   BANK4   BANK5   BANK6   BANK7   BANK8   BANK9  BANK10  BANK1
      +1  BANK12
  3300 ;;      Params:         0       0       0       0       0       0       0       0       0       0       0       0       
      +0       0
  3301 ;;      Locals:         0       0       0       0       0       0       0       0       0       0       0       0       
      +0       0
  3302 ;;      Temps:          0       0       0       0       0       0       0       0       0       0       0       0       
      +0       0
  3303 ;;      Totals:         0       0       0       0       0       0       0       0       0       0       0       0       
      +0       0
  3304 ;;Total ram usage:        0 bytes
  3305 ;; Hardware stack levels used:    1
  3306 ;; Hardware stack levels required when called:    4
  3307 ;; This function calls:
  3308 ;;		Nothing
  3309 ;; This function is called by:
  3310 ;;		_SYSTEM_Initialize
  3311 ;; This function uses a non-reentrant model
  3312 ;;
  3313                           
  3314                           
  3315                           ;psect for function _TMR1_Initialize
  3316  06EB                     _TMR1_Initialize:
  3317  06EB                     l3125:	
  3318                           ;incstack = 0
  3319                           ; Regs used in _TMR1_Initialize: [wreg+status,2]
  3320                           
  3321                           
  3322                           ;mcc_generated_files/tmr1.c: 68:     T1GCON = 0x00;
  3323  06EB  0020               	movlb	0	; select bank0
  3324  06EC  0199               	clrf	25	;volatile
  3325                           
  3326                           ;mcc_generated_files/tmr1.c: 71:     TMR1H = 0x00;
  3327  06ED  0197               	clrf	23	;volatile
  3328                           
  3329                           ;mcc_generated_files/tmr1.c: 74:     TMR1L = 0x00;
  3330  06EE  0196               	clrf	22	;volatile
  3331  06EF                     l3127:
  3332                           
  3333                           ;mcc_generated_files/tmr1.c: 77:     PIR1bits.TMR1IF = 0;
  3334  06EF  1011               	bcf	17,0	;volatile
  3335  06F0                     l3129:
  3336                           
  3337                           ;mcc_generated_files/tmr1.c: 80:     timer1ReloadVal=(uint16_t)((TMR1H << 8) | TMR1L);
  3338  06F0  0817               	movf	23,w	;volatile
  3339  06F1  00C0               	movwf	_timer1ReloadVal+1	;volatile
  3340  06F2  0816               	movf	22,w	;volatile
  3341  06F3  00BF               	movwf	_timer1ReloadVal	;volatile
  3342  06F4                     l3131:
  3343                           
  3344                           ;mcc_generated_files/tmr1.c: 83:     T1CON = 0x31;
  3345  06F4  3031               	movlw	49
  3346  06F5  0098               	movwf	24	;volatile
  3347  06F6                     l879:
  3348  06F6  0008               	return
  3349  06F7                     __end_of_TMR1_Initialize:
  3350                           
  3351                           	psect	text5
  3352  0703                     __ptext5:	
  3353 ;; *************** function _TMR0_Initialize *****************
  3354 ;; Defined at:
  3355 ;;		line 63 in file "mcc_generated_files/tmr0.c"
  3356 ;; Parameters:    Size  Location     Type
  3357 ;;		None
  3358 ;; Auto vars:     Size  Location     Type
  3359 ;;		None
  3360 ;; Return value:  Size  Location     Type
  3361 ;;                  1    wreg      void 
  3362 ;; Registers used:
  3363 ;;		wreg, status,2
  3364 ;; Tracked objects:
  3365 ;;		On entry : 0/0
  3366 ;;		On exit  : 0/0
  3367 ;;		Unchanged: 0/0
  3368 ;; Data sizes:     COMMON   BANK0   BANK1   BANK2   BANK3   BANK4   BANK5   BANK6   BANK7   BANK8   BANK9  BANK10  BANK1
      +1  BANK12
  3369 ;;      Params:         0       0       0       0       0       0       0       0       0       0       0       0       
      +0       0
  3370 ;;      Locals:         0       0       0       0       0       0       0       0       0       0       0       0       
      +0       0
  3371 ;;      Temps:          0       0       0       0       0       0       0       0       0       0       0       0       
      +0       0
  3372 ;;      Totals:         0       0       0       0       0       0       0       0       0       0       0       0       
      +0       0
  3373 ;;Total ram usage:        0 bytes
  3374 ;; Hardware stack levels used:    1
  3375 ;; Hardware stack levels required when called:    4
  3376 ;; This function calls:
  3377 ;;		Nothing
  3378 ;; This function is called by:
  3379 ;;		_SYSTEM_Initialize
  3380 ;; This function uses a non-reentrant model
  3381 ;;
  3382                           
  3383                           
  3384                           ;psect for function _TMR0_Initialize
  3385  0703                     _TMR0_Initialize:
  3386  0703                     l3133:	
  3387                           ;incstack = 0
  3388                           ; Regs used in _TMR0_Initialize: [wreg+status,2]
  3389                           
  3390                           
  3391                           ;mcc_generated_files/tmr0.c: 68:     OPTION_REG = (uint8_t)((OPTION_REG & 0xC0) | (0xDF 
      +                          & 0x3F));
  3392  0703  0021               	movlb	1	; select bank1
  3393  0704  0815               	movf	21,w	;volatile
  3394  0705  39C0               	andlw	192
  3395  0706  381F               	iorlw	31
  3396  0707  0095               	movwf	21	;volatile
  3397  0708                     l3135:
  3398                           
  3399                           ;mcc_generated_files/tmr0.c: 71:     TMR0 = 0x00;
  3400  0708  0020               	movlb	0	; select bank0
  3401  0709  0195               	clrf	21	;volatile
  3402  070A                     l3137:
  3403                           
  3404                           ;mcc_generated_files/tmr0.c: 74:     timer0ReloadVal= 0;
  3405  070A  01FD               	clrf	_timer0ReloadVal	;volatile
  3406  070B                     l3139:
  3407                           
  3408                           ;mcc_generated_files/tmr0.c: 77:     INTCONbits.TMR0IF = 0;
  3409  070B  110B               	bcf	11,2	;volatile
  3410  070C                     l848:
  3411  070C  0008               	return
  3412  070D                     __end_of_TMR0_Initialize:
  3413                           
  3414                           	psect	text6
  3415  0680                     __ptext6:	
  3416 ;; *************** function _PIN_MANAGER_Initialize *****************
  3417 ;; Defined at:
  3418 ;;		line 55 in file "mcc_generated_files/pin_manager.c"
  3419 ;; Parameters:    Size  Location     Type
  3420 ;;		None
  3421 ;; Auto vars:     Size  Location     Type
  3422 ;;		None
  3423 ;; Return value:  Size  Location     Type
  3424 ;;                  1    wreg      void 
  3425 ;; Registers used:
  3426 ;;		wreg, status,2
  3427 ;; Tracked objects:
  3428 ;;		On entry : 0/0
  3429 ;;		On exit  : 0/0
  3430 ;;		Unchanged: 0/0
  3431 ;; Data sizes:     COMMON   BANK0   BANK1   BANK2   BANK3   BANK4   BANK5   BANK6   BANK7   BANK8   BANK9  BANK10  BANK1
      +1  BANK12
  3432 ;;      Params:         0       0       0       0       0       0       0       0       0       0       0       0       
      +0       0
  3433 ;;      Locals:         0       0       0       0       0       0       0       0       0       0       0       0       
      +0       0
  3434 ;;      Temps:          0       0       0       0       0       0       0       0       0       0       0       0       
      +0       0
  3435 ;;      Totals:         0       0       0       0       0       0       0       0       0       0       0       0       
      +0       0
  3436 ;;Total ram usage:        0 bytes
  3437 ;; Hardware stack levels used:    1
  3438 ;; Hardware stack levels required when called:    4
  3439 ;; This function calls:
  3440 ;;		Nothing
  3441 ;; This function is called by:
  3442 ;;		_SYSTEM_Initialize
  3443 ;; This function uses a non-reentrant model
  3444 ;;
  3445                           
  3446                           
  3447                           ;psect for function _PIN_MANAGER_Initialize
  3448  0680                     _PIN_MANAGER_Initialize:
  3449  0680                     l3069:	
  3450                           ;incstack = 0
  3451                           ; Regs used in _PIN_MANAGER_Initialize: [wreg+status,2]
  3452                           
  3453                           
  3454                           ;mcc_generated_files/pin_manager.c: 60:     LATE = 0x00;
  3455  0680  0022               	movlb	2	; select bank2
  3456  0681  0190               	clrf	16	;volatile
  3457                           
  3458                           ;mcc_generated_files/pin_manager.c: 61:     LATA = 0x00;
  3459  0682  018C               	clrf	12	;volatile
  3460                           
  3461                           ;mcc_generated_files/pin_manager.c: 62:     LATB = 0x00;
  3462  0683  018D               	clrf	13	;volatile
  3463                           
  3464                           ;mcc_generated_files/pin_manager.c: 63:     LATC = 0x00;
  3465  0684  018E               	clrf	14	;volatile
  3466  0685                     l3071:
  3467                           
  3468                           ;mcc_generated_files/pin_manager.c: 68:     TRISE = 0x08;
  3469  0685  3008               	movlw	8
  3470  0686  0021               	movlb	1	; select bank1
  3471  0687  0090               	movwf	16	;volatile
  3472  0688                     l3073:
  3473                           
  3474                           ;mcc_generated_files/pin_manager.c: 69:     TRISA = 0x00;
  3475  0688  018C               	clrf	12	;volatile
  3476                           
  3477                           ;mcc_generated_files/pin_manager.c: 70:     TRISB = 0x0F;
  3478  0689  300F               	movlw	15
  3479  068A  008D               	movwf	13	;volatile
  3480                           
  3481                           ;mcc_generated_files/pin_manager.c: 71:     TRISC = 0xBF;
  3482  068B  30BF               	movlw	191
  3483  068C  008E               	movwf	14	;volatile
  3484                           
  3485                           ;mcc_generated_files/pin_manager.c: 76:     ANSELB = 0x0E;
  3486  068D  300E               	movlw	14
  3487  068E  0023               	movlb	3	; select bank3
  3488  068F  008D               	movwf	13	;volatile
  3489  0690                     l3075:
  3490                           
  3491                           ;mcc_generated_files/pin_manager.c: 77:     ANSELA = 0x00;
  3492  0690  018C               	clrf	12	;volatile
  3493  0691                     l3077:
  3494                           
  3495                           ;mcc_generated_files/pin_manager.c: 82:     WPUE = 0x00;
  3496  0691  0024               	movlb	4	; select bank4
  3497  0692  0190               	clrf	16	;volatile
  3498                           
  3499                           ;mcc_generated_files/pin_manager.c: 83:     WPUB = 0x01;
  3500  0693  3001               	movlw	1
  3501  0694  008D               	movwf	13	;volatile
  3502  0695                     l3079:
  3503                           
  3504                           ;mcc_generated_files/pin_manager.c: 84:     OPTION_REGbits.nWPUEN = 0;
  3505  0695  0021               	movlb	1	; select bank1
  3506  0696  1395               	bcf	21,7	;volatile
  3507  0697                     l3081:
  3508                           
  3509                           ;mcc_generated_files/pin_manager.c: 90:     APFCON = 0x00;
  3510  0697  0022               	movlb	2	; select bank2
  3511  0698  019D               	clrf	29	;volatile
  3512  0699                     l355:
  3513  0699  0008               	return
  3514  069A                     __end_of_PIN_MANAGER_Initialize:
  3515                           
  3516                           	psect	text7
  3517  06F7                     __ptext7:	
  3518 ;; *************** function _OSCILLATOR_Initialize *****************
  3519 ;; Defined at:
  3520 ;;		line 66 in file "mcc_generated_files/mcc.c"
  3521 ;; Parameters:    Size  Location     Type
  3522 ;;		None
  3523 ;; Auto vars:     Size  Location     Type
  3524 ;;		None
  3525 ;; Return value:  Size  Location     Type
  3526 ;;                  1    wreg      void 
  3527 ;; Registers used:
  3528 ;;		wreg, status,2
  3529 ;; Tracked objects:
  3530 ;;		On entry : 0/0
  3531 ;;		On exit  : 0/0
  3532 ;;		Unchanged: 0/0
  3533 ;; Data sizes:     COMMON   BANK0   BANK1   BANK2   BANK3   BANK4   BANK5   BANK6   BANK7   BANK8   BANK9  BANK10  BANK1
      +1  BANK12
  3534 ;;      Params:         0       0       0       0       0       0       0       0       0       0       0       0       
      +0       0
  3535 ;;      Locals:         0       0       0       0       0       0       0       0       0       0       0       0       
      +0       0
  3536 ;;      Temps:          0       0       0       0       0       0       0       0       0       0       0       0       
      +0       0
  3537 ;;      Totals:         0       0       0       0       0       0       0       0       0       0       0       0       
      +0       0
  3538 ;;Total ram usage:        0 bytes
  3539 ;; Hardware stack levels used:    1
  3540 ;; Hardware stack levels required when called:    4
  3541 ;; This function calls:
  3542 ;;		Nothing
  3543 ;; This function is called by:
  3544 ;;		_SYSTEM_Initialize
  3545 ;; This function uses a non-reentrant model
  3546 ;;
  3547                           
  3548                           
  3549                           ;psect for function _OSCILLATOR_Initialize
  3550  06F7                     _OSCILLATOR_Initialize:
  3551  06F7                     l3103:	
  3552                           ;incstack = 0
  3553                           ; Regs used in _OSCILLATOR_Initialize: [wreg+status,2]
  3554                           
  3555                           
  3556                           ;mcc_generated_files/mcc.c: 69:     OSCCON = 0x70;
  3557  06F7  3070               	movlw	112
  3558  06F8  0021               	movlb	1	; select bank1
  3559  06F9  0099               	movwf	25	;volatile
  3560  06FA                     l3105:
  3561                           
  3562                           ;mcc_generated_files/mcc.c: 71:     OSCTUNE = 0x00;
  3563  06FA  0198               	clrf	24	;volatile
  3564  06FB                     l3107:
  3565                           
  3566                           ;mcc_generated_files/mcc.c: 73:     BORCON = 0x00;
  3567  06FB  0022               	movlb	2	; select bank2
  3568  06FC  0196               	clrf	22	;volatile
  3569  06FD                     l831:	
  3570                           ;mcc_generated_files/mcc.c: 76:     {;mcc_generated_files/mcc.c: 77:     }
  3571                           
  3572                           
  3573                           ;mcc_generated_files/mcc.c: 75:     while(PLLR == 0)
  3574  06FD  0021               	movlb	1	; select bank1
  3575  06FE  1F1A               	btfss	26,6	;volatile
  3576  06FF  2F01               	goto	u791
  3577  0700  2F02               	goto	u790
  3578  0701                     u791:
  3579  0701  2EFD               	goto	l831
  3580  0702                     u790:
  3581  0702                     l834:
  3582  0702  0008               	return
  3583  0703                     __end_of_OSCILLATOR_Initialize:
  3584                           
  3585                           	psect	text8
  3586  069A                     __ptext8:	
  3587 ;; *************** function _LCD_Initialize *****************
  3588 ;; Defined at:
  3589 ;;		line 58 in file "mcc_generated_files/lcd.c"
  3590 ;; Parameters:    Size  Location     Type
  3591 ;;		None
  3592 ;; Auto vars:     Size  Location     Type
  3593 ;;		None
  3594 ;; Return value:  Size  Location     Type
  3595 ;;                  1    wreg      void 
  3596 ;; Registers used:
  3597 ;;		wreg, status,2
  3598 ;; Tracked objects:
  3599 ;;		On entry : 0/0
  3600 ;;		On exit  : 0/0
  3601 ;;		Unchanged: 0/0
  3602 ;; Data sizes:     COMMON   BANK0   BANK1   BANK2   BANK3   BANK4   BANK5   BANK6   BANK7   BANK8   BANK9  BANK10  BANK1
      +1  BANK12
  3603 ;;      Params:         0       0       0       0       0       0       0       0       0       0       0       0       
      +0       0
  3604 ;;      Locals:         0       0       0       0       0       0       0       0       0       0       0       0       
      +0       0
  3605 ;;      Temps:          0       0       0       0       0       0       0       0       0       0       0       0       
      +0       0
  3606 ;;      Totals:         0       0       0       0       0       0       0       0       0       0       0       0       
      +0       0
  3607 ;;Total ram usage:        0 bytes
  3608 ;; Hardware stack levels used:    1
  3609 ;; Hardware stack levels required when called:    4
  3610 ;; This function calls:
  3611 ;;		Nothing
  3612 ;; This function is called by:
  3613 ;;		_SYSTEM_Initialize
  3614 ;; This function uses a non-reentrant model
  3615 ;;
  3616                           
  3617                           
  3618                           ;psect for function _LCD_Initialize
  3619  069A                     _LCD_Initialize:
  3620  069A                     l3041:	
  3621                           ;incstack = 0
  3622                           ; Regs used in _LCD_Initialize: [wreg+status,2]
  3623                           
  3624                           
  3625                           ;mcc_generated_files/lcd.c: 61:     LCDCONbits.LCDEN = 0;
  3626  069A  002F               	movlb	15	; select bank15
  3627  069B  1391               	bcf	17,7	;volatile
  3628  069C                     l3043:
  3629                           
  3630                           ;mcc_generated_files/lcd.c: 65:     LCDPS = 0x01;
  3631  069C  3001               	movlw	1
  3632  069D  0092               	movwf	18	;volatile
  3633                           
  3634                           ;mcc_generated_files/lcd.c: 68:     LCDREF = 0xA0;
  3635  069E  30A0               	movlw	160
  3636  069F  0093               	movwf	19	;volatile
  3637                           
  3638                           ;mcc_generated_files/lcd.c: 71:     LCDRL = 0x10;
  3639  06A0  3010               	movlw	16
  3640  06A1  0095               	movwf	21	;volatile
  3641  06A2                     l3045:
  3642                           
  3643                           ;mcc_generated_files/lcd.c: 74:     LCDCST = 0x00;
  3644  06A2  0194               	clrf	20	;volatile
  3645  06A3                     l3047:
  3646                           
  3647                           ;mcc_generated_files/lcd.c: 77:  LCDDATA0 = 0x00;
  3648  06A3  01A0               	clrf	32	;volatile
  3649  06A4                     l3049:
  3650                           
  3651                           ;mcc_generated_files/lcd.c: 78:  LCDDATA1 = 0x00;
  3652  06A4  01A1               	clrf	33	;volatile
  3653  06A5                     l3051:
  3654                           
  3655                           ;mcc_generated_files/lcd.c: 79:  LCDDATA3 = 0x00;
  3656  06A5  01A3               	clrf	35	;volatile
  3657  06A6                     l3053:
  3658                           
  3659                           ;mcc_generated_files/lcd.c: 80:  LCDDATA4 = 0x00;
  3660  06A6  01A4               	clrf	36	;volatile
  3661  06A7                     l3055:
  3662                           
  3663                           ;mcc_generated_files/lcd.c: 81:  LCDDATA6 = 0x00;
  3664  06A7  01A6               	clrf	38	;volatile
  3665  06A8                     l3057:
  3666                           
  3667                           ;mcc_generated_files/lcd.c: 82:  LCDDATA7 = 0x00;
  3668  06A8  01A7               	clrf	39	;volatile
  3669  06A9                     l3059:
  3670                           
  3671                           ;mcc_generated_files/lcd.c: 83:  LCDDATA9 = 0x00;
  3672  06A9  01A9               	clrf	41	;volatile
  3673  06AA                     l3061:
  3674                           
  3675                           ;mcc_generated_files/lcd.c: 84:  LCDDATA10 = 0x00;
  3676  06AA  01AA               	clrf	42	;volatile
  3677  06AB                     l3063:
  3678                           
  3679                           ;mcc_generated_files/lcd.c: 87:  LCDSE0 = 0xB6;
  3680  06AB  30B6               	movlw	182
  3681  06AC  0098               	movwf	24	;volatile
  3682  06AD                     l3065:
  3683                           
  3684                           ;mcc_generated_files/lcd.c: 88:  LCDSE1 = 0x70;
  3685  06AD  3070               	movlw	112
  3686  06AE  0099               	movwf	25	;volatile
  3687  06AF                     l3067:
  3688                           
  3689                           ;mcc_generated_files/lcd.c: 91:     LCDCON = 0xCB;
  3690  06AF  30CB               	movlw	203
  3691  06B0  0091               	movwf	17	;volatile
  3692  06B1                     l209:
  3693  06B1  0008               	return
  3694  06B2                     __end_of_LCD_Initialize:
  3695                           
  3696                           	psect	text9
  3697  070D                     __ptext9:	
  3698 ;; *************** function _I2C_Initialize *****************
  3699 ;; Defined at:
  3700 ;;		line 167 in file "mcc_generated_files/i2c_master.c"
  3701 ;; Parameters:    Size  Location     Type
  3702 ;;		None
  3703 ;; Auto vars:     Size  Location     Type
  3704 ;;		None
  3705 ;; Return value:  Size  Location     Type
  3706 ;;                  1    wreg      void 
  3707 ;; Registers used:
  3708 ;;		wreg, status,2
  3709 ;; Tracked objects:
  3710 ;;		On entry : 0/0
  3711 ;;		On exit  : 0/0
  3712 ;;		Unchanged: 0/0
  3713 ;; Data sizes:     COMMON   BANK0   BANK1   BANK2   BANK3   BANK4   BANK5   BANK6   BANK7   BANK8   BANK9  BANK10  BANK1
      +1  BANK12
  3714 ;;      Params:         0       0       0       0       0       0       0       0       0       0       0       0       
      +0       0
  3715 ;;      Locals:         0       0       0       0       0       0       0       0       0       0       0       0       
      +0       0
  3716 ;;      Temps:          0       0       0       0       0       0       0       0       0       0       0       0       
      +0       0
  3717 ;;      Totals:         0       0       0       0       0       0       0       0       0       0       0       0       
      +0       0
  3718 ;;Total ram usage:        0 bytes
  3719 ;; Hardware stack levels used:    1
  3720 ;; Hardware stack levels required when called:    4
  3721 ;; This function calls:
  3722 ;;		Nothing
  3723 ;; This function is called by:
  3724 ;;		_SYSTEM_Initialize
  3725 ;; This function uses a non-reentrant model
  3726 ;;
  3727                           
  3728                           
  3729                           ;psect for function _I2C_Initialize
  3730  070D                     _I2C_Initialize:
  3731  070D                     l3095:	
  3732                           ;incstack = 0
  3733                           ; Regs used in _I2C_Initialize: [wreg+status,2]
  3734                           
  3735                           
  3736                           ;mcc_generated_files/i2c_master.c: 169:     SSPSTAT = 0x00;
  3737  070D  0024               	movlb	4	; select bank4
  3738  070E  0194               	clrf	20	;volatile
  3739  070F                     l3097:
  3740                           
  3741                           ;mcc_generated_files/i2c_master.c: 170:     SSPCON1 = 0x08;
  3742  070F  3008               	movlw	8
  3743  0710  0095               	movwf	21	;volatile
  3744  0711                     l3099:
  3745                           
  3746                           ;mcc_generated_files/i2c_master.c: 171:     SSPCON2 = 0x00;
  3747  0711  0196               	clrf	22	;volatile
  3748                           
  3749                           ;mcc_generated_files/i2c_master.c: 172:     SSPADD = 0x4F;
  3750  0712  304F               	movlw	79
  3751  0713  0092               	movwf	18	;volatile
  3752  0714                     l3101:
  3753                           
  3754                           ;mcc_generated_files/i2c_master.c: 173:     SSPCON1bits.SSPEN = 0;
  3755  0714  1295               	bcf	21,5	;volatile
  3756  0715                     l563:
  3757  0715  0008               	return
  3758  0716                     __end_of_I2C_Initialize:
  3759                           
  3760                           	psect	text10
  3761  073E                     __ptext10:	
  3762 ;; *************** function _FVR_Initialize *****************
  3763 ;; Defined at:
  3764 ;;		line 58 in file "mcc_generated_files/fvr.c"
  3765 ;; Parameters:    Size  Location     Type
  3766 ;;		None
  3767 ;; Auto vars:     Size  Location     Type
  3768 ;;		None
  3769 ;; Return value:  Size  Location     Type
  3770 ;;                  1    wreg      void 
  3771 ;; Registers used:
  3772 ;;		wreg
  3773 ;; Tracked objects:
  3774 ;;		On entry : 0/0
  3775 ;;		On exit  : 0/0
  3776 ;;		Unchanged: 0/0
  3777 ;; Data sizes:     COMMON   BANK0   BANK1   BANK2   BANK3   BANK4   BANK5   BANK6   BANK7   BANK8   BANK9  BANK10  BANK1
      +1  BANK12
  3778 ;;      Params:         0       0       0       0       0       0       0       0       0       0       0       0       
      +0       0
  3779 ;;      Locals:         0       0       0       0       0       0       0       0       0       0       0       0       
      +0       0
  3780 ;;      Temps:          0       0       0       0       0       0       0       0       0       0       0       0       
      +0       0
  3781 ;;      Totals:         0       0       0       0       0       0       0       0       0       0       0       0       
      +0       0
  3782 ;;Total ram usage:        0 bytes
  3783 ;; Hardware stack levels used:    1
  3784 ;; Hardware stack levels required when called:    4
  3785 ;; This function calls:
  3786 ;;		Nothing
  3787 ;; This function is called by:
  3788 ;;		_SYSTEM_Initialize
  3789 ;; This function uses a non-reentrant model
  3790 ;;
  3791                           
  3792                           
  3793                           ;psect for function _FVR_Initialize
  3794  073E                     _FVR_Initialize:
  3795  073E                     l3093:	
  3796                           ;incstack = 0
  3797                           ; Regs used in _FVR_Initialize: [wreg]
  3798                           
  3799                           
  3800                           ;mcc_generated_files/fvr.c: 61:     FVRCON = 0x8A;
  3801  073E  308A               	movlw	138
  3802  073F  0022               	movlb	2	; select bank2
  3803  0740  0097               	movwf	23	;volatile
  3804  0741                     l453:
  3805  0741  0008               	return
  3806  0742                     __end_of_FVR_Initialize:
  3807                           
  3808                           	psect	text11
  3809  0618                     __ptext11:	
  3810 ;; *************** function _EUSART_Initialize *****************
  3811 ;; Defined at:
  3812 ;;		line 66 in file "mcc_generated_files/eusart.c"
  3813 ;; Parameters:    Size  Location     Type
  3814 ;;		None
  3815 ;; Auto vars:     Size  Location     Type
  3816 ;;		None
  3817 ;; Return value:  Size  Location     Type
  3818 ;;                  1    wreg      void 
  3819 ;; Registers used:
  3820 ;;		wreg, status,2, status,0, pclath, cstack
  3821 ;; Tracked objects:
  3822 ;;		On entry : 0/0
  3823 ;;		On exit  : 0/0
  3824 ;;		Unchanged: 0/0
  3825 ;; Data sizes:     COMMON   BANK0   BANK1   BANK2   BANK3   BANK4   BANK5   BANK6   BANK7   BANK8   BANK9  BANK10  BANK1
      +1  BANK12
  3826 ;;      Params:         0       0       0       0       0       0       0       0       0       0       0       0       
      +0       0
  3827 ;;      Locals:         0       0       0       0       0       0       0       0       0       0       0       0       
      +0       0
  3828 ;;      Temps:          0       0       0       0       0       0       0       0       0       0       0       0       
      +0       0
  3829 ;;      Totals:         0       0       0       0       0       0       0       0       0       0       0       0       
      +0       0
  3830 ;;Total ram usage:        0 bytes
  3831 ;; Hardware stack levels used:    1
  3832 ;; Hardware stack levels required when called:    5
  3833 ;; This function calls:
  3834 ;;		_EUSART_SetErrorHandler
  3835 ;;		_EUSART_SetFramingErrorHandler
  3836 ;;		_EUSART_SetOverrunErrorHandler
  3837 ;; This function is called by:
  3838 ;;		_SYSTEM_Initialize
  3839 ;; This function uses a non-reentrant model
  3840 ;;
  3841                           
  3842                           
  3843                           ;psect for function _EUSART_Initialize
  3844  0618                     _EUSART_Initialize:
  3845  0618                     l3083:	
  3846                           ;incstack = 0
  3847                           ; Regs used in _EUSART_Initialize: [wreg+status,2+status,0+pclath+cstack]
  3848                           
  3849                           
  3850                           ;mcc_generated_files/eusart.c: 71:     BAUDCON = 0x08;
  3851  0618  3008               	movlw	8
  3852  0619  0023               	movlb	3	; select bank3
  3853  061A  009F               	movwf	31	;volatile
  3854                           
  3855                           ;mcc_generated_files/eusart.c: 74:     RCSTA = 0x90;
  3856  061B  3090               	movlw	144
  3857  061C  009D               	movwf	29	;volatile
  3858                           
  3859                           ;mcc_generated_files/eusart.c: 77:     TXSTA = 0x24;
  3860  061D  3024               	movlw	36
  3861  061E  009E               	movwf	30	;volatile
  3862                           
  3863                           ;mcc_generated_files/eusart.c: 80:     SPBRGL = 0x40;
  3864  061F  3040               	movlw	64
  3865  0620  009B               	movwf	27	;volatile
  3866                           
  3867                           ;mcc_generated_files/eusart.c: 83:     SPBRGH = 0x03;
  3868  0621  3003               	movlw	3
  3869  0622  009C               	movwf	28	;volatile
  3870  0623                     l3085:
  3871                           
  3872                           ;mcc_generated_files/eusart.c: 86:     EUSART_SetFramingErrorHandler(EUSART_DefaultFrami
      +                          ngErrorHandler);
  3873  0623  3000               	movlw	0
  3874  0624  0020               	movlb	0	; select bank0
  3875  0625  00CC               	movwf	EUSART_SetFramingErrorHandler@interruptHandler
  3876  0626  3000               	movlw	0
  3877  0627  00CD               	movwf	EUSART_SetFramingErrorHandler@interruptHandler+1
  3878  0628  3187  2722  3186   	fcall	_EUSART_SetFramingErrorHandler
  3879  062B                     l3087:
  3880                           
  3881                           ;mcc_generated_files/eusart.c: 87:     EUSART_SetOverrunErrorHandler(EUSART_DefaultOverr
      +                          unErrorHandler);
  3882  062B  3000               	movlw	0
  3883  062C  0020               	movlb	0	; select bank0
  3884  062D  00CC               	movwf	EUSART_SetOverrunErrorHandler@interruptHandler
  3885  062E  3000               	movlw	0
  3886  062F  00CD               	movwf	EUSART_SetOverrunErrorHandler@interruptHandler+1
  3887  0630  3187  271C  3186   	fcall	_EUSART_SetOverrunErrorHandler
  3888  0633                     l3089:
  3889                           
  3890                           ;mcc_generated_files/eusart.c: 88:     EUSART_SetErrorHandler(EUSART_DefaultErrorHandler
      +                          );
  3891  0633  3000               	movlw	0
  3892  0634  0020               	movlb	0	; select bank0
  3893  0635  00CC               	movwf	EUSART_SetErrorHandler@interruptHandler
  3894  0636  3000               	movlw	0
  3895  0637  00CD               	movwf	EUSART_SetErrorHandler@interruptHandler+1
  3896  0638  3187  2728  3186   	fcall	_EUSART_SetErrorHandler
  3897  063B                     l3091:
  3898                           
  3899                           ;mcc_generated_files/eusart.c: 90:     eusartRxLastError.status = 0;
  3900  063B  0020               	movlb	0	; select bank0
  3901  063C  01CB               	clrf	_eusartRxLastError	;volatile
  3902  063D                     l401:
  3903  063D  0008               	return
  3904  063E                     __end_of_EUSART_Initialize:
  3905                           
  3906                           	psect	text12
  3907  071C                     __ptext12:	
  3908 ;; *************** function _EUSART_SetOverrunErrorHandler *****************
  3909 ;; Defined at:
  3910 ;;		line 161 in file "mcc_generated_files/eusart.c"
  3911 ;; Parameters:    Size  Location     Type
  3912 ;;  interruptHan    2    0[BANK0 ] PTR FTN()void 
  3913 ;;		 -> EUSART_DefaultOverrunErrorHandler(1), 
  3914 ;; Auto vars:     Size  Location     Type
  3915 ;;		None
  3916 ;; Return value:  Size  Location     Type
  3917 ;;                  1    wreg      void 
  3918 ;; Registers used:
  3919 ;;		wreg
  3920 ;; Tracked objects:
  3921 ;;		On entry : 0/0
  3922 ;;		On exit  : 0/0
  3923 ;;		Unchanged: 0/0
  3924 ;; Data sizes:     COMMON   BANK0   BANK1   BANK2   BANK3   BANK4   BANK5   BANK6   BANK7   BANK8   BANK9  BANK10  BANK1
      +1  BANK12
  3925 ;;      Params:         0       2       0       0       0       0       0       0       0       0       0       0       
      +0       0
  3926 ;;      Locals:         0       0       0       0       0       0       0       0       0       0       0       0       
      +0       0
  3927 ;;      Temps:          0       0       0       0       0       0       0       0       0       0       0       0       
      +0       0
  3928 ;;      Totals:         0       2       0       0       0       0       0       0       0       0       0       0       
      +0       0
  3929 ;;Total ram usage:        2 bytes
  3930 ;; Hardware stack levels used:    1
  3931 ;; Hardware stack levels required when called:    4
  3932 ;; This function calls:
  3933 ;;		Nothing
  3934 ;; This function is called by:
  3935 ;;		_EUSART_Initialize
  3936 ;; This function uses a non-reentrant model
  3937 ;;
  3938                           
  3939                           
  3940                           ;psect for function _EUSART_SetOverrunErrorHandler
  3941  071C                     _EUSART_SetOverrunErrorHandler:
  3942  071C                     l3021:	
  3943                           ;incstack = 0
  3944                           ; Regs used in _EUSART_SetOverrunErrorHandler: [wreg]
  3945                           
  3946                           
  3947                           ;mcc_generated_files/eusart.c: 162:     EUSART_OverrunErrorHandler = interruptHandler;
  3948  071C  0020               	movlb	0	; select bank0
  3949  071D  084D               	movf	EUSART_SetOverrunErrorHandler@interruptHandler+1,w
  3950  071E  00C4               	movwf	_EUSART_OverrunErrorHandler+1
  3951  071F  084C               	movf	EUSART_SetOverrunErrorHandler@interruptHandler,w
  3952  0720  00C3               	movwf	_EUSART_OverrunErrorHandler
  3953  0721                     l443:
  3954  0721  0008               	return
  3955  0722                     __end_of_EUSART_SetOverrunErrorHandler:
  3956                           
  3957                           	psect	text13
  3958  0722                     __ptext13:	
  3959 ;; *************** function _EUSART_SetFramingErrorHandler *****************
  3960 ;; Defined at:
  3961 ;;		line 157 in file "mcc_generated_files/eusart.c"
  3962 ;; Parameters:    Size  Location     Type
  3963 ;;  interruptHan    2    0[BANK0 ] PTR FTN()void 
  3964 ;;		 -> EUSART_DefaultFramingErrorHandler(1), 
  3965 ;; Auto vars:     Size  Location     Type
  3966 ;;		None
  3967 ;; Return value:  Size  Location     Type
  3968 ;;                  1    wreg      void 
  3969 ;; Registers used:
  3970 ;;		wreg
  3971 ;; Tracked objects:
  3972 ;;		On entry : 0/0
  3973 ;;		On exit  : 0/0
  3974 ;;		Unchanged: 0/0
  3975 ;; Data sizes:     COMMON   BANK0   BANK1   BANK2   BANK3   BANK4   BANK5   BANK6   BANK7   BANK8   BANK9  BANK10  BANK1
      +1  BANK12
  3976 ;;      Params:         0       2       0       0       0       0       0       0       0       0       0       0       
      +0       0
  3977 ;;      Locals:         0       0       0       0       0       0       0       0       0       0       0       0       
      +0       0
  3978 ;;      Temps:          0       0       0       0       0       0       0       0       0       0       0       0       
      +0       0
  3979 ;;      Totals:         0       2       0       0       0       0       0       0       0       0       0       0       
      +0       0
  3980 ;;Total ram usage:        2 bytes
  3981 ;; Hardware stack levels used:    1
  3982 ;; Hardware stack levels required when called:    4
  3983 ;; This function calls:
  3984 ;;		Nothing
  3985 ;; This function is called by:
  3986 ;;		_EUSART_Initialize
  3987 ;; This function uses a non-reentrant model
  3988 ;;
  3989                           
  3990                           
  3991                           ;psect for function _EUSART_SetFramingErrorHandler
  3992  0722                     _EUSART_SetFramingErrorHandler:
  3993  0722                     l3019:	
  3994                           ;incstack = 0
  3995                           ; Regs used in _EUSART_SetFramingErrorHandler: [wreg]
  3996                           
  3997                           
  3998                           ;mcc_generated_files/eusart.c: 158:     EUSART_FramingErrorHandler = interruptHandler;
  3999  0722  0020               	movlb	0	; select bank0
  4000  0723  084D               	movf	EUSART_SetFramingErrorHandler@interruptHandler+1,w
  4001  0724  00C6               	movwf	_EUSART_FramingErrorHandler+1
  4002  0725  084C               	movf	EUSART_SetFramingErrorHandler@interruptHandler,w
  4003  0726  00C5               	movwf	_EUSART_FramingErrorHandler
  4004  0727                     l440:
  4005  0727  0008               	return
  4006  0728                     __end_of_EUSART_SetFramingErrorHandler:
  4007                           
  4008                           	psect	text14
  4009  0728                     __ptext14:	
  4010 ;; *************** function _EUSART_SetErrorHandler *****************
  4011 ;; Defined at:
  4012 ;;		line 165 in file "mcc_generated_files/eusart.c"
  4013 ;; Parameters:    Size  Location     Type
  4014 ;;  interruptHan    2    0[BANK0 ] PTR FTN()void 
  4015 ;;		 -> EUSART_DefaultErrorHandler(1), 
  4016 ;; Auto vars:     Size  Location     Type
  4017 ;;		None
  4018 ;; Return value:  Size  Location     Type
  4019 ;;                  1    wreg      void 
  4020 ;; Registers used:
  4021 ;;		wreg
  4022 ;; Tracked objects:
  4023 ;;		On entry : 0/0
  4024 ;;		On exit  : 0/0
  4025 ;;		Unchanged: 0/0
  4026 ;; Data sizes:     COMMON   BANK0   BANK1   BANK2   BANK3   BANK4   BANK5   BANK6   BANK7   BANK8   BANK9  BANK10  BANK1
      +1  BANK12
  4027 ;;      Params:         0       2       0       0       0       0       0       0       0       0       0       0       
      +0       0
  4028 ;;      Locals:         0       0       0       0       0       0       0       0       0       0       0       0       
      +0       0
  4029 ;;      Temps:          0       0       0       0       0       0       0       0       0       0       0       0       
      +0       0
  4030 ;;      Totals:         0       2       0       0       0       0       0       0       0       0       0       0       
      +0       0
  4031 ;;Total ram usage:        2 bytes
  4032 ;; Hardware stack levels used:    1
  4033 ;; Hardware stack levels required when called:    4
  4034 ;; This function calls:
  4035 ;;		Nothing
  4036 ;; This function is called by:
  4037 ;;		_EUSART_Initialize
  4038 ;; This function uses a non-reentrant model
  4039 ;;
  4040                           
  4041                           
  4042                           ;psect for function _EUSART_SetErrorHandler
  4043  0728                     _EUSART_SetErrorHandler:
  4044  0728                     l3023:	
  4045                           ;incstack = 0
  4046                           ; Regs used in _EUSART_SetErrorHandler: [wreg]
  4047                           
  4048                           
  4049                           ;mcc_generated_files/eusart.c: 166:     EUSART_ErrorHandler = interruptHandler;
  4050  0728  0020               	movlb	0	; select bank0
  4051  0729  084D               	movf	EUSART_SetErrorHandler@interruptHandler+1,w
  4052  072A  00C2               	movwf	_EUSART_ErrorHandler+1
  4053  072B  084C               	movf	EUSART_SetErrorHandler@interruptHandler,w
  4054  072C  00C1               	movwf	_EUSART_ErrorHandler
  4055  072D                     l446:
  4056  072D  0008               	return
  4057  072E                     __end_of_EUSART_SetErrorHandler:
  4058                           
  4059                           	psect	text15
  4060  072E                     __ptext15:	
  4061 ;; *************** function _DAC_Initialize *****************
  4062 ;; Defined at:
  4063 ;;		line 58 in file "mcc_generated_files/dac.c"
  4064 ;; Parameters:    Size  Location     Type
  4065 ;;		None
  4066 ;; Auto vars:     Size  Location     Type
  4067 ;;		None
  4068 ;; Return value:  Size  Location     Type
  4069 ;;                  1    wreg      void 
  4070 ;; Registers used:
  4071 ;;		wreg
  4072 ;; Tracked objects:
  4073 ;;		On entry : 0/0
  4074 ;;		On exit  : 0/0
  4075 ;;		Unchanged: 0/0
  4076 ;; Data sizes:     COMMON   BANK0   BANK1   BANK2   BANK3   BANK4   BANK5   BANK6   BANK7   BANK8   BANK9  BANK10  BANK1
      +1  BANK12
  4077 ;;      Params:         0       0       0       0       0       0       0       0       0       0       0       0       
      +0       0
  4078 ;;      Locals:         0       0       0       0       0       0       0       0       0       0       0       0       
      +0       0
  4079 ;;      Temps:          0       0       0       0       0       0       0       0       0       0       0       0       
      +0       0
  4080 ;;      Totals:         0       0       0       0       0       0       0       0       0       0       0       0       
      +0       0
  4081 ;;Total ram usage:        0 bytes
  4082 ;; Hardware stack levels used:    1
  4083 ;; Hardware stack levels required when called:    4
  4084 ;; This function calls:
  4085 ;;		Nothing
  4086 ;; This function is called by:
  4087 ;;		_SYSTEM_Initialize
  4088 ;; This function uses a non-reentrant model
  4089 ;;
  4090                           
  4091                           
  4092                           ;psect for function _DAC_Initialize
  4093  072E                     _DAC_Initialize:
  4094  072E                     l3111:	
  4095                           ;incstack = 0
  4096                           ; Regs used in _DAC_Initialize: [wreg]
  4097                           
  4098                           
  4099                           ;mcc_generated_files/dac.c: 61:     DACCON0 = 0x88;
  4100  072E  3088               	movlw	136
  4101  072F  0022               	movlb	2	; select bank2
  4102  0730  0098               	movwf	24	;volatile
  4103                           
  4104                           ;mcc_generated_files/dac.c: 63:     DACCON1 = 0x10;
  4105  0731  3010               	movlw	16
  4106  0732  0099               	movwf	25	;volatile
  4107  0733                     l912:
  4108  0733  0008               	return
  4109  0734                     __end_of_DAC_Initialize:
  4110                           
  4111                           	psect	text16
  4112  06C8                     __ptext16:	
  4113 ;; *************** function _CCP4_Initialize *****************
  4114 ;; Defined at:
  4115 ;;		line 65 in file "mcc_generated_files/ccp4.c"
  4116 ;; Parameters:    Size  Location     Type
  4117 ;;		None
  4118 ;; Auto vars:     Size  Location     Type
  4119 ;;		None
  4120 ;; Return value:  Size  Location     Type
  4121 ;;                  1    wreg      void 
  4122 ;; Registers used:
  4123 ;;		wreg, status,2, status,0, pclath, cstack
  4124 ;; Tracked objects:
  4125 ;;		On entry : 0/0
  4126 ;;		On exit  : 0/0
  4127 ;;		Unchanged: 0/0
  4128 ;; Data sizes:     COMMON   BANK0   BANK1   BANK2   BANK3   BANK4   BANK5   BANK6   BANK7   BANK8   BANK9  BANK10  BANK1
      +1  BANK12
  4129 ;;      Params:         0       0       0       0       0       0       0       0       0       0       0       0       
      +0       0
  4130 ;;      Locals:         0       0       0       0       0       0       0       0       0       0       0       0       
      +0       0
  4131 ;;      Temps:          0       0       0       0       0       0       0       0       0       0       0       0       
      +0       0
  4132 ;;      Totals:         0       0       0       0       0       0       0       0       0       0       0       0       
      +0       0
  4133 ;;Total ram usage:        0 bytes
  4134 ;; Hardware stack levels used:    1
  4135 ;; Hardware stack levels required when called:    5
  4136 ;; This function calls:
  4137 ;;		_CCP4_SetCallBack
  4138 ;; This function is called by:
  4139 ;;		_SYSTEM_Initialize
  4140 ;; This function uses a non-reentrant model
  4141 ;;
  4142                           
  4143                           
  4144                           ;psect for function _CCP4_Initialize
  4145  06C8                     _CCP4_Initialize:
  4146  06C8                     l3113:	
  4147                           ;incstack = 0
  4148                           ; Regs used in _CCP4_Initialize: [wreg+status,2+status,0+pclath+cstack]
  4149                           
  4150                           
  4151                           ;mcc_generated_files/ccp4.c: 70:  CCP4CON = 0x04;
  4152  06C8  3004               	movlw	4
  4153  06C9  0026               	movlb	6	; select bank6
  4154  06CA  009A               	movwf	26	;volatile
  4155  06CB                     l3115:
  4156                           
  4157                           ;mcc_generated_files/ccp4.c: 73:  CCPR4L = 0x00;
  4158  06CB  0198               	clrf	24	;volatile
  4159  06CC                     l3117:
  4160                           
  4161                           ;mcc_generated_files/ccp4.c: 76:  CCPR4H = 0x00;
  4162  06CC  0199               	clrf	25	;volatile
  4163  06CD                     l3119:
  4164                           
  4165                           ;mcc_generated_files/ccp4.c: 79:     CCP4_SetCallBack(CCP4_DefaultCallBack);
  4166  06CD  3042               	movlw	low _CCP4_DefaultCallBack
  4167  06CE  0020               	movlb	0	; select bank0
  4168  06CF  00CC               	movwf	CCP4_SetCallBack@customCallBack
  4169  06D0  3007               	movlw	high _CCP4_DefaultCallBack
  4170  06D1  00CD               	movwf	CCP4_SetCallBack@customCallBack+1
  4171  06D2  3187  2734  3186   	fcall	_CCP4_SetCallBack
  4172  06D5                     l3121:
  4173                           
  4174                           ;mcc_generated_files/ccp4.c: 83:     PIR3bits.CCP4IF = 0;
  4175  06D5  0020               	movlb	0	; select bank0
  4176  06D6  1293               	bcf	19,5	;volatile
  4177  06D7                     l3123:
  4178                           
  4179                           ;mcc_generated_files/ccp4.c: 86:     PIE3bits.CCP4IE = 1;
  4180  06D7  0021               	movlb	1	; select bank1
  4181  06D8  1693               	bsf	19,5	;volatile
  4182  06D9                     l938:
  4183  06D9  0008               	return
  4184  06DA                     __end_of_CCP4_Initialize:
  4185                           
  4186                           	psect	text17
  4187  0734                     __ptext17:	
  4188 ;; *************** function _CCP4_SetCallBack *****************
  4189 ;; Defined at:
  4190 ;;		line 104 in file "mcc_generated_files/ccp4.c"
  4191 ;; Parameters:    Size  Location     Type
  4192 ;;  customCallBa    2    0[BANK0 ] PTR FTN(unsigned short ,
  4193 ;;		 -> CCP4_CallBack@main$F1838(1), CCP4_DefaultCallBack(1), 
  4194 ;; Auto vars:     Size  Location     Type
  4195 ;;		None
  4196 ;; Return value:  Size  Location     Type
  4197 ;;                  1    wreg      void 
  4198 ;; Registers used:
  4199 ;;		wreg
  4200 ;; Tracked objects:
  4201 ;;		On entry : 0/0
  4202 ;;		On exit  : 0/0
  4203 ;;		Unchanged: 0/0
  4204 ;; Data sizes:     COMMON   BANK0   BANK1   BANK2   BANK3   BANK4   BANK5   BANK6   BANK7   BANK8   BANK9  BANK10  BANK1
      +1  BANK12
  4205 ;;      Params:         0       2       0       0       0       0       0       0       0       0       0       0       
      +0       0
  4206 ;;      Locals:         0       0       0       0       0       0       0       0       0       0       0       0       
      +0       0
  4207 ;;      Temps:          0       0       0       0       0       0       0       0       0       0       0       0       
      +0       0
  4208 ;;      Totals:         0       2       0       0       0       0       0       0       0       0       0       0       
      +0       0
  4209 ;;Total ram usage:        2 bytes
  4210 ;; Hardware stack levels used:    1
  4211 ;; Hardware stack levels required when called:    4
  4212 ;; This function calls:
  4213 ;;		Nothing
  4214 ;; This function is called by:
  4215 ;;		_CCP4_Initialize
  4216 ;;		_main
  4217 ;; This function uses a non-reentrant model
  4218 ;;
  4219                           
  4220                           
  4221                           ;psect for function _CCP4_SetCallBack
  4222  0734                     _CCP4_SetCallBack:
  4223  0734                     l3039:	
  4224                           ;incstack = 0
  4225                           ; Regs used in _CCP4_SetCallBack: [wreg]
  4226                           
  4227                           
  4228                           ;mcc_generated_files/ccp4.c: 105:     CCP4_CallBack = customCallBack;
  4229  0734  0020               	movlb	0	; select bank0
  4230  0735  084D               	movf	CCP4_SetCallBack@customCallBack+1,w
  4231  0736  00BE               	movwf	_CCP4_CallBack+1
  4232  0737  084C               	movf	CCP4_SetCallBack@customCallBack,w
  4233  0738  00BD               	movwf	_CCP4_CallBack
  4234  0739                     l944:
  4235  0739  0008               	return
  4236  073A                     __end_of_CCP4_SetCallBack:
  4237                           
  4238                           	psect	text18
  4239  002A                     __ptext18:	
  4240 ;; *************** function _LCD_Digit4Num *****************
  4241 ;; Defined at:
  4242 ;;		line 282 in file "main.c"
  4243 ;; Parameters:    Size  Location     Type
  4244 ;;  num             1    wreg     unsigned char 
  4245 ;; Auto vars:     Size  Location     Type
  4246 ;;  num             1    2[BANK0 ] unsigned char 
  4247 ;; Return value:  Size  Location     Type
  4248 ;;                  1    wreg      void 
  4249 ;; Registers used:
  4250 ;;		wreg, fsr0l, fsr0h, status,2, status,0
  4251 ;; Tracked objects:
  4252 ;;		On entry : 0/0
  4253 ;;		On exit  : 0/0
  4254 ;;		Unchanged: 0/0
  4255 ;; Data sizes:     COMMON   BANK0   BANK1   BANK2   BANK3   BANK4   BANK5   BANK6   BANK7   BANK8   BANK9  BANK10  BANK1
      +1  BANK12
  4256 ;;      Params:         0       0       0       0       0       0       0       0       0       0       0       0       
      +0       0
  4257 ;;      Locals:         0       1       0       0       0       0       0       0       0       0       0       0       
      +0       0
  4258 ;;      Temps:          0       2       0       0       0       0       0       0       0       0       0       0       
      +0       0
  4259 ;;      Totals:         0       3       0       0       0       0       0       0       0       0       0       0       
      +0       0
  4260 ;;Total ram usage:        3 bytes
  4261 ;; Hardware stack levels used:    1
  4262 ;; Hardware stack levels required when called:    4
  4263 ;; This function calls:
  4264 ;;		Nothing
  4265 ;; This function is called by:
  4266 ;;		_main
  4267 ;; This function uses a non-reentrant model
  4268 ;;
  4269                           
  4270                           
  4271                           ;psect for function _LCD_Digit4Num
  4272  002A                     _LCD_Digit4Num:
  4273                           
  4274                           ;incstack = 0
  4275                           ; Regs used in _LCD_Digit4Num: [wreg-fsr0h+status,2+status,0]
  4276                           ;LCD_Digit4Num@num stored from wreg
  4277  002A  0020               	movlb	0	; select bank0
  4278  002B  00CE               	movwf	LCD_Digit4Num@num
  4279  002C                     l3265:
  4280                           
  4281                           ;main.c: 282: void LCD_Digit4Num (unsigned char num);main.c: 283: {;main.c: 284:     swi
      +                          tch (num)
  4282  002C  293B               	goto	l3267
  4283  002D                     l1119:
  4284  002D  002F               	movlb	15	; select bank15
  4285  002E  172A               	bsf	42,6	;volatile
  4286  002F  1529               	bsf	41,2	;volatile
  4287  0030  1523               	bsf	35,2	;volatile
  4288  0031  1520               	bsf	32,2	;volatile
  4289  0032  1724               	bsf	36,6	;volatile
  4290  0033  1727               	bsf	39,6	;volatile
  4291  0034  1126               	bcf	38,2	;volatile
  4292  0035  2A05               	goto	l1184
  4293  0036                     l1122:
  4294  0036  002F               	movlb	15	; select bank15
  4295  0037  132A               	bcf	42,6	;volatile
  4296  0038  1529               	bsf	41,2	;volatile
  4297  0039  1523               	bsf	35,2	;volatile
  4298  003A  1120               	bcf	32,2	;volatile
  4299  003B  1324               	bcf	36,6	;volatile
  4300  003C  1327               	bcf	39,6	;volatile
  4301  003D  1126               	bcf	38,2	;volatile
  4302  003E  2A05               	goto	l1184
  4303  003F                     l1124:
  4304  003F  002F               	movlb	15	; select bank15
  4305  0040  172A               	bsf	42,6	;volatile
  4306  0041  1529               	bsf	41,2	;volatile
  4307  0042  1123               	bcf	35,2	;volatile
  4308  0043  1520               	bsf	32,2	;volatile
  4309  0044  1724               	bsf	36,6	;volatile
  4310  0045  1327               	bcf	39,6	;volatile
  4311  0046  1526               	bsf	38,2	;volatile
  4312  0047  2A05               	goto	l1184
  4313  0048                     l1126:
  4314  0048  002F               	movlb	15	; select bank15
  4315  0049  172A               	bsf	42,6	;volatile
  4316  004A  1529               	bsf	41,2	;volatile
  4317  004B  1523               	bsf	35,2	;volatile
  4318  004C  1520               	bsf	32,2	;volatile
  4319  004D  1324               	bcf	36,6	;volatile
  4320  004E  1327               	bcf	39,6	;volatile
  4321  004F  1526               	bsf	38,2	;volatile
  4322  0050  2A05               	goto	l1184
  4323  0051                     l1128:
  4324  0051  002F               	movlb	15	; select bank15
  4325  0052  132A               	bcf	42,6	;volatile
  4326  0053  1529               	bsf	41,2	;volatile
  4327  0054  1523               	bsf	35,2	;volatile
  4328  0055  1120               	bcf	32,2	;volatile
  4329  0056  1324               	bcf	36,6	;volatile
  4330  0057  1727               	bsf	39,6	;volatile
  4331  0058  1526               	bsf	38,2	;volatile
  4332  0059  2A05               	goto	l1184
  4333  005A                     l1130:
  4334  005A  002F               	movlb	15	; select bank15
  4335  005B  172A               	bsf	42,6	;volatile
  4336  005C  1129               	bcf	41,2	;volatile
  4337  005D  1523               	bsf	35,2	;volatile
  4338  005E  1520               	bsf	32,2	;volatile
  4339  005F  1324               	bcf	36,6	;volatile
  4340  0060  1727               	bsf	39,6	;volatile
  4341  0061  1526               	bsf	38,2	;volatile
  4342  0062  2A05               	goto	l1184
  4343  0063                     l1132:
  4344  0063  002F               	movlb	15	; select bank15
  4345  0064  172A               	bsf	42,6	;volatile
  4346  0065  1129               	bcf	41,2	;volatile
  4347  0066  1523               	bsf	35,2	;volatile
  4348  0067  1520               	bsf	32,2	;volatile
  4349  0068  1724               	bsf	36,6	;volatile
  4350  0069  1727               	bsf	39,6	;volatile
  4351  006A  1526               	bsf	38,2	;volatile
  4352  006B  2A05               	goto	l1184
  4353  006C                     l1134:
  4354  006C  002F               	movlb	15	; select bank15
  4355  006D  172A               	bsf	42,6	;volatile
  4356  006E  1529               	bsf	41,2	;volatile
  4357  006F  1523               	bsf	35,2	;volatile
  4358  0070  1120               	bcf	32,2	;volatile
  4359  0071  1324               	bcf	36,6	;volatile
  4360  0072  1327               	bcf	39,6	;volatile
  4361  0073  1126               	bcf	38,2	;volatile
  4362  0074  2A05               	goto	l1184
  4363  0075                     l1136:
  4364  0075  002F               	movlb	15	; select bank15
  4365  0076  172A               	bsf	42,6	;volatile
  4366  0077  1529               	bsf	41,2	;volatile
  4367  0078  1523               	bsf	35,2	;volatile
  4368  0079  1520               	bsf	32,2	;volatile
  4369  007A  1724               	bsf	36,6	;volatile
  4370  007B  1727               	bsf	39,6	;volatile
  4371  007C  1526               	bsf	38,2	;volatile
  4372  007D  2A05               	goto	l1184
  4373  007E                     l1138:
  4374  007E  002F               	movlb	15	; select bank15
  4375  007F  172A               	bsf	42,6	;volatile
  4376  0080  1529               	bsf	41,2	;volatile
  4377  0081  1523               	bsf	35,2	;volatile
  4378  0082  1520               	bsf	32,2	;volatile
  4379  0083  1324               	bcf	36,6	;volatile
  4380  0084  1727               	bsf	39,6	;volatile
  4381  0085  1526               	bsf	38,2	;volatile
  4382  0086  2A05               	goto	l1184
  4383  0087                     l1141:
  4384  0087  002F               	movlb	15	; select bank15
  4385  0088  172A               	bsf	42,6	;volatile
  4386  0089  1529               	bsf	41,2	;volatile
  4387  008A  1523               	bsf	35,2	;volatile
  4388  008B  1120               	bcf	32,2	;volatile
  4389  008C  1724               	bsf	36,6	;volatile
  4390  008D  1727               	bsf	39,6	;volatile
  4391  008E  1526               	bsf	38,2	;volatile
  4392  008F  2A05               	goto	l1184
  4393  0090                     l1144:
  4394  0090  002F               	movlb	15	; select bank15
  4395  0091  132A               	bcf	42,6	;volatile
  4396  0092  1129               	bcf	41,2	;volatile
  4397  0093  1523               	bsf	35,2	;volatile
  4398  0094  1520               	bsf	32,2	;volatile
  4399  0095  1724               	bsf	36,6	;volatile
  4400  0096  1727               	bsf	39,6	;volatile
  4401  0097  1526               	bsf	38,2	;volatile
  4402  0098  2A05               	goto	l1184
  4403  0099                     l1147:
  4404  0099  002F               	movlb	15	; select bank15
  4405  009A  172A               	bsf	42,6	;volatile
  4406  009B  1129               	bcf	41,2	;volatile
  4407  009C  1123               	bcf	35,2	;volatile
  4408  009D  1520               	bsf	32,2	;volatile
  4409  009E  1724               	bsf	36,6	;volatile
  4410  009F  1727               	bsf	39,6	;volatile
  4411  00A0  1126               	bcf	38,2	;volatile
  4412  00A1  2A05               	goto	l1184
  4413  00A2                     l1150:
  4414  00A2  002F               	movlb	15	; select bank15
  4415  00A3  132A               	bcf	42,6	;volatile
  4416  00A4  1529               	bsf	41,2	;volatile
  4417  00A5  1523               	bsf	35,2	;volatile
  4418  00A6  1520               	bsf	32,2	;volatile
  4419  00A7  1724               	bsf	36,6	;volatile
  4420  00A8  1327               	bcf	39,6	;volatile
  4421  00A9  1526               	bsf	38,2	;volatile
  4422  00AA  2A05               	goto	l1184
  4423  00AB                     l1153:
  4424  00AB  002F               	movlb	15	; select bank15
  4425  00AC  172A               	bsf	42,6	;volatile
  4426  00AD  1129               	bcf	41,2	;volatile
  4427  00AE  1123               	bcf	35,2	;volatile
  4428  00AF  1520               	bsf	32,2	;volatile
  4429  00B0  1724               	bsf	36,6	;volatile
  4430  00B1  1727               	bsf	39,6	;volatile
  4431  00B2  1526               	bsf	38,2	;volatile
  4432  00B3  2A05               	goto	l1184
  4433  00B4                     l1156:
  4434  00B4  002F               	movlb	15	; select bank15
  4435  00B5  172A               	bsf	42,6	;volatile
  4436  00B6  1129               	bcf	41,2	;volatile
  4437  00B7  1123               	bcf	35,2	;volatile
  4438  00B8  1120               	bcf	32,2	;volatile
  4439  00B9  1724               	bsf	36,6	;volatile
  4440  00BA  1727               	bsf	39,6	;volatile
  4441  00BB  1526               	bsf	38,2	;volatile
  4442  00BC  2A05               	goto	l1184
  4443  00BD                     l1158:
  4444  00BD  002F               	movlb	15	; select bank15
  4445  00BE  172A               	bsf	42,6	;volatile
  4446  00BF  1529               	bsf	41,2	;volatile
  4447  00C0  1523               	bsf	35,2	;volatile
  4448  00C1  1520               	bsf	32,2	;volatile
  4449  00C2  1724               	bsf	36,6	;volatile
  4450  00C3  1727               	bsf	39,6	;volatile
  4451  00C4  1526               	bsf	38,2	;volatile
  4452  00C5  2A05               	goto	l1184
  4453  00C6                     l1160:
  4454  00C6  002F               	movlb	15	; select bank15
  4455  00C7  172A               	bsf	42,6	;volatile
  4456  00C8  1529               	bsf	41,2	;volatile
  4457  00C9  1523               	bsf	35,2	;volatile
  4458  00CA  1520               	bsf	32,2	;volatile
  4459  00CB  1724               	bsf	36,6	;volatile
  4460  00CC  1727               	bsf	39,6	;volatile
  4461  00CD  1526               	bsf	38,2	;volatile
  4462  00CE  2A05               	goto	l1184
  4463  00CF                     l1162:
  4464  00CF  002F               	movlb	15	; select bank15
  4465  00D0  172A               	bsf	42,6	;volatile
  4466  00D1  1529               	bsf	41,2	;volatile
  4467  00D2  1523               	bsf	35,2	;volatile
  4468  00D3  1520               	bsf	32,2	;volatile
  4469  00D4  1724               	bsf	36,6	;volatile
  4470  00D5  1727               	bsf	39,6	;volatile
  4471  00D6  1526               	bsf	38,2	;volatile
  4472  00D7  2A05               	goto	l1184
  4473  00D8                     l1164:
  4474  00D8  002F               	movlb	15	; select bank15
  4475  00D9  172A               	bsf	42,6	;volatile
  4476  00DA  1529               	bsf	41,2	;volatile
  4477  00DB  1523               	bsf	35,2	;volatile
  4478  00DC  1520               	bsf	32,2	;volatile
  4479  00DD  1724               	bsf	36,6	;volatile
  4480  00DE  1727               	bsf	39,6	;volatile
  4481  00DF  1526               	bsf	38,2	;volatile
  4482  00E0  2A05               	goto	l1184
  4483  00E1                     l1166:
  4484  00E1  002F               	movlb	15	; select bank15
  4485  00E2  172A               	bsf	42,6	;volatile
  4486  00E3  1529               	bsf	41,2	;volatile
  4487  00E4  1523               	bsf	35,2	;volatile
  4488  00E5  1520               	bsf	32,2	;volatile
  4489  00E6  1724               	bsf	36,6	;volatile
  4490  00E7  1727               	bsf	39,6	;volatile
  4491  00E8  1526               	bsf	38,2	;volatile
  4492  00E9  2A05               	goto	l1184
  4493  00EA                     l1168:
  4494  00EA  002F               	movlb	15	; select bank15
  4495  00EB  172A               	bsf	42,6	;volatile
  4496  00EC  1529               	bsf	41,2	;volatile
  4497  00ED  1523               	bsf	35,2	;volatile
  4498  00EE  1520               	bsf	32,2	;volatile
  4499  00EF  1724               	bsf	36,6	;volatile
  4500  00F0  1727               	bsf	39,6	;volatile
  4501  00F1  1526               	bsf	38,2	;volatile
  4502  00F2  2A05               	goto	l1184
  4503  00F3                     l1170:
  4504  00F3  002F               	movlb	15	; select bank15
  4505  00F4  172A               	bsf	42,6	;volatile
  4506  00F5  1529               	bsf	41,2	;volatile
  4507  00F6  1523               	bsf	35,2	;volatile
  4508  00F7  1520               	bsf	32,2	;volatile
  4509  00F8  1724               	bsf	36,6	;volatile
  4510  00F9  1727               	bsf	39,6	;volatile
  4511  00FA  1526               	bsf	38,2	;volatile
  4512  00FB  2A05               	goto	l1184
  4513  00FC                     l1172:
  4514  00FC  002F               	movlb	15	; select bank15
  4515  00FD  172A               	bsf	42,6	;volatile
  4516  00FE  1529               	bsf	41,2	;volatile
  4517  00FF  1523               	bsf	35,2	;volatile
  4518  0100  1520               	bsf	32,2	;volatile
  4519  0101  1724               	bsf	36,6	;volatile
  4520  0102  1727               	bsf	39,6	;volatile
  4521  0103  1526               	bsf	38,2	;volatile
  4522  0104  2A05               	goto	l1184
  4523  0105                     l1174:
  4524  0105  002F               	movlb	15	; select bank15
  4525  0106  172A               	bsf	42,6	;volatile
  4526  0107  1529               	bsf	41,2	;volatile
  4527  0108  1523               	bsf	35,2	;volatile
  4528  0109  1520               	bsf	32,2	;volatile
  4529  010A  1724               	bsf	36,6	;volatile
  4530  010B  1727               	bsf	39,6	;volatile
  4531  010C  1526               	bsf	38,2	;volatile
  4532  010D  2A05               	goto	l1184
  4533  010E                     l1176:
  4534  010E  002F               	movlb	15	; select bank15
  4535  010F  172A               	bsf	42,6	;volatile
  4536  0110  1529               	bsf	41,2	;volatile
  4537  0111  1523               	bsf	35,2	;volatile
  4538  0112  1520               	bsf	32,2	;volatile
  4539  0113  1724               	bsf	36,6	;volatile
  4540  0114  1727               	bsf	39,6	;volatile
  4541  0115  1526               	bsf	38,2	;volatile
  4542  0116  2A05               	goto	l1184
  4543  0117                     l1178:
  4544  0117  002F               	movlb	15	; select bank15
  4545  0118  172A               	bsf	42,6	;volatile
  4546  0119  1529               	bsf	41,2	;volatile
  4547  011A  1523               	bsf	35,2	;volatile
  4548  011B  1520               	bsf	32,2	;volatile
  4549  011C  1724               	bsf	36,6	;volatile
  4550  011D  1727               	bsf	39,6	;volatile
  4551  011E  1526               	bsf	38,2	;volatile
  4552  011F  2A05               	goto	l1184
  4553  0120                     l1180:
  4554  0120  002F               	movlb	15	; select bank15
  4555  0121  172A               	bsf	42,6	;volatile
  4556  0122  1529               	bsf	41,2	;volatile
  4557  0123  1523               	bsf	35,2	;volatile
  4558  0124  1520               	bsf	32,2	;volatile
  4559  0125  1724               	bsf	36,6	;volatile
  4560  0126  1727               	bsf	39,6	;volatile
  4561  0127  1526               	bsf	38,2	;volatile
  4562  0128  2A05               	goto	l1184
  4563  0129                     l1182:
  4564  0129  002F               	movlb	15	; select bank15
  4565  012A  172A               	bsf	42,6	;volatile
  4566  012B  1529               	bsf	41,2	;volatile
  4567  012C  1523               	bsf	35,2	;volatile
  4568  012D  1520               	bsf	32,2	;volatile
  4569  012E  1724               	bsf	36,6	;volatile
  4570  012F  1727               	bsf	39,6	;volatile
  4571  0130  1526               	bsf	38,2	;volatile
  4572  0131  2A05               	goto	l1184
  4573  0132                     l1183:	
  4574                           ;main.c: 316:         default: LCDDATA10bits.SEG14COM3 = 0; LCDDATA9bits.SEG2COM3 = 0; L
      +                          CDDATA3bits.SEG2COM1 = 0; LCDDATA0bits.SEG2COM0 = 0; LCDDATA4bits.SEG14COM1 = 0; LCDDATA
      +                          7bits.SEG14COM2 = 0; LCDDATA6bits.SEG2COM2 = 0;
  4575                           
  4576  0132  002F               	movlb	15	; select bank15
  4577  0133  132A               	bcf	42,6	;volatile
  4578  0134  1129               	bcf	41,2	;volatile
  4579  0135  1123               	bcf	35,2	;volatile
  4580  0136  1120               	bcf	32,2	;volatile
  4581  0137  1324               	bcf	36,6	;volatile
  4582  0138  1327               	bcf	39,6	;volatile
  4583  0139  1126               	bcf	38,2	;volatile
  4584                           
  4585                           ;main.c: 317:     }
  4586  013A  2A05               	goto	l1184
  4587  013B                     l3267:
  4588  013B  084E               	movf	LCD_Digit4Num@num,w
  4589  013C  00CC               	movwf	??_LCD_Digit4Num
  4590  013D  01CD               	clrf	??_LCD_Digit4Num+1
  4591                           
  4592                           ; Switch on 2 bytes has been partitioned into a top level switch of size 1, and 1 sub-sw
      +                          itches
  4593                           ; Switch size 1, requested type "simple"
  4594                           ; Number of cases is 1, Range of values is 0 to 0
  4595                           ; switch strategies available:
  4596                           ; Name         Instructions Cycles
  4597                           ; simple_byte            4     3 (average)
  4598                           ; direct_byte            8     6 (fixed)
  4599                           ; jumptable            260     6 (fixed)
  4600                           ;	Chosen strategy is simple_byte
  4601  013E  084D               	movf	??_LCD_Digit4Num+1,w
  4602  013F  3A00               	xorlw	0	; case 0
  4603  0140  1903               	skipnz
  4604  0141  2943               	goto	l3449
  4605  0142  2932               	goto	l1183
  4606  0143                     l3449:
  4607                           
  4608                           ; Switch size 1, requested type "simple"
  4609                           ; Number of cases is 64, Range of values is 0 to 121
  4610                           ; switch strategies available:
  4611                           ; Name         Instructions Cycles
  4612                           ; simple_byte          193    97 (average)
  4613                           ; direct_byte          250     6 (fixed)
  4614                           ; jumptable            260     6 (fixed)
  4615                           ;	Chosen strategy is simple_byte
  4616  0143  084C               	movf	??_LCD_Digit4Num,w
  4617  0144  3A00               	xorlw	0	; case 0
  4618  0145  1903               	skipnz
  4619  0146  282D               	goto	l1119
  4620  0147  3A01               	xorlw	1	; case 1
  4621  0148  1903               	skipnz
  4622  0149  2836               	goto	l1122
  4623  014A  3A03               	xorlw	3	; case 2
  4624  014B  1903               	skipnz
  4625  014C  283F               	goto	l1124
  4626  014D  3A01               	xorlw	1	; case 3
  4627  014E  1903               	skipnz
  4628  014F  2848               	goto	l1126
  4629  0150  3A07               	xorlw	7	; case 4
  4630  0151  1903               	skipnz
  4631  0152  2851               	goto	l1128
  4632  0153  3A01               	xorlw	1	; case 5
  4633  0154  1903               	skipnz
  4634  0155  285A               	goto	l1130
  4635  0156  3A03               	xorlw	3	; case 6
  4636  0157  1903               	skipnz
  4637  0158  2863               	goto	l1132
  4638  0159  3A01               	xorlw	1	; case 7
  4639  015A  1903               	skipnz
  4640  015B  286C               	goto	l1134
  4641  015C  3A0F               	xorlw	15	; case 8
  4642  015D  1903               	skipnz
  4643  015E  2875               	goto	l1136
  4644  015F  3A01               	xorlw	1	; case 9
  4645  0160  1903               	skipnz
  4646  0161  287E               	goto	l1138
  4647  0162  3A03               	xorlw	3	; case 10
  4648  0163  1903               	skipnz
  4649  0164  2887               	goto	l1141
  4650  0165  3A01               	xorlw	1	; case 11
  4651  0166  1903               	skipnz
  4652  0167  2890               	goto	l1144
  4653  0168  3A07               	xorlw	7	; case 12
  4654  0169  1903               	skipnz
  4655  016A  2899               	goto	l1147
  4656  016B  3A01               	xorlw	1	; case 13
  4657  016C  1903               	skipnz
  4658  016D  28A2               	goto	l1150
  4659  016E  3A03               	xorlw	3	; case 14
  4660  016F  1903               	skipnz
  4661  0170  28AB               	goto	l1153
  4662  0171  3A01               	xorlw	1	; case 15
  4663  0172  1903               	skipnz
  4664  0173  28B4               	goto	l1156
  4665  0174  3A3F               	xorlw	63	; case 48
  4666  0175  1903               	skipnz
  4667  0176  282D               	goto	l1119
  4668  0177  3A01               	xorlw	1	; case 49
  4669  0178  1903               	skipnz
  4670  0179  2836               	goto	l1122
  4671  017A  3A03               	xorlw	3	; case 50
  4672  017B  1903               	skipnz
  4673  017C  283F               	goto	l1124
  4674  017D  3A01               	xorlw	1	; case 51
  4675  017E  1903               	skipnz
  4676  017F  2848               	goto	l1126
  4677  0180  3A07               	xorlw	7	; case 52
  4678  0181  1903               	skipnz
  4679  0182  2851               	goto	l1128
  4680  0183  3A01               	xorlw	1	; case 53
  4681  0184  1903               	skipnz
  4682  0185  285A               	goto	l1130
  4683  0186  3A03               	xorlw	3	; case 54
  4684  0187  1903               	skipnz
  4685  0188  2863               	goto	l1132
  4686  0189  3A01               	xorlw	1	; case 55
  4687  018A  1903               	skipnz
  4688  018B  286C               	goto	l1134
  4689  018C  3A0F               	xorlw	15	; case 56
  4690  018D  1903               	skipnz
  4691  018E  2875               	goto	l1136
  4692  018F  3A01               	xorlw	1	; case 57
  4693  0190  1903               	skipnz
  4694  0191  287E               	goto	l1138
  4695  0192  3A78               	xorlw	120	; case 65
  4696  0193  1903               	skipnz
  4697  0194  2887               	goto	l1141
  4698  0195  3A03               	xorlw	3	; case 66
  4699  0196  1903               	skipnz
  4700  0197  2890               	goto	l1144
  4701  0198  3A01               	xorlw	1	; case 67
  4702  0199  1903               	skipnz
  4703  019A  2899               	goto	l1147
  4704  019B  3A07               	xorlw	7	; case 68
  4705  019C  1903               	skipnz
  4706  019D  28A2               	goto	l1150
  4707  019E  3A01               	xorlw	1	; case 69
  4708  019F  1903               	skipnz
  4709  01A0  28AB               	goto	l1153
  4710  01A1  3A03               	xorlw	3	; case 70
  4711  01A2  1903               	skipnz
  4712  01A3  28B4               	goto	l1156
  4713  01A4  3A01               	xorlw	1	; case 71
  4714  01A5  1903               	skipnz
  4715  01A6  28BD               	goto	l1158
  4716  01A7  3A0F               	xorlw	15	; case 72
  4717  01A8  1903               	skipnz
  4718  01A9  28C6               	goto	l1160
  4719  01AA  3A01               	xorlw	1	; case 73
  4720  01AB  1903               	skipnz
  4721  01AC  28CF               	goto	l1162
  4722  01AD  3A03               	xorlw	3	; case 74
  4723  01AE  1903               	skipnz
  4724  01AF  28D8               	goto	l1164
  4725  01B0  3A01               	xorlw	1	; case 75
  4726  01B1  1903               	skipnz
  4727  01B2  28E1               	goto	l1166
  4728  01B3  3A07               	xorlw	7	; case 76
  4729  01B4  1903               	skipnz
  4730  01B5  28EA               	goto	l1168
  4731  01B6  3A02               	xorlw	2	; case 78
  4732  01B7  1903               	skipnz
  4733  01B8  28F3               	goto	l1170
  4734  01B9  3A01               	xorlw	1	; case 79
  4735  01BA  1903               	skipnz
  4736  01BB  28FC               	goto	l1172
  4737  01BC  3A1F               	xorlw	31	; case 80
  4738  01BD  1903               	skipnz
  4739  01BE  2905               	goto	l1174
  4740  01BF  3A03               	xorlw	3	; case 83
  4741  01C0  1903               	skipnz
  4742  01C1  290E               	goto	l1176
  4743  01C2  3A07               	xorlw	7	; case 84
  4744  01C3  1903               	skipnz
  4745  01C4  2917               	goto	l1178
  4746  01C5  3A01               	xorlw	1	; case 85
  4747  01C6  1903               	skipnz
  4748  01C7  2920               	goto	l1180
  4749  01C8  3A0C               	xorlw	12	; case 89
  4750  01C9  1903               	skipnz
  4751  01CA  2929               	goto	l1182
  4752  01CB  3A38               	xorlw	56	; case 97
  4753  01CC  1903               	skipnz
  4754  01CD  2887               	goto	l1141
  4755  01CE  3A03               	xorlw	3	; case 98
  4756  01CF  1903               	skipnz
  4757  01D0  2890               	goto	l1144
  4758  01D1  3A01               	xorlw	1	; case 99
  4759  01D2  1903               	skipnz
  4760  01D3  2899               	goto	l1147
  4761  01D4  3A07               	xorlw	7	; case 100
  4762  01D5  1903               	skipnz
  4763  01D6  28A2               	goto	l1150
  4764  01D7  3A01               	xorlw	1	; case 101
  4765  01D8  1903               	skipnz
  4766  01D9  28AB               	goto	l1153
  4767  01DA  3A03               	xorlw	3	; case 102
  4768  01DB  1903               	skipnz
  4769  01DC  28B4               	goto	l1156
  4770  01DD  3A01               	xorlw	1	; case 103
  4771  01DE  1903               	skipnz
  4772  01DF  28BD               	goto	l1158
  4773  01E0  3A0F               	xorlw	15	; case 104
  4774  01E1  1903               	skipnz
  4775  01E2  28C6               	goto	l1160
  4776  01E3  3A01               	xorlw	1	; case 105
  4777  01E4  1903               	skipnz
  4778  01E5  28CF               	goto	l1162
  4779  01E6  3A03               	xorlw	3	; case 106
  4780  01E7  1903               	skipnz
  4781  01E8  28D8               	goto	l1164
  4782  01E9  3A01               	xorlw	1	; case 107
  4783  01EA  1903               	skipnz
  4784  01EB  28E1               	goto	l1166
  4785  01EC  3A07               	xorlw	7	; case 108
  4786  01ED  1903               	skipnz
  4787  01EE  28EA               	goto	l1168
  4788  01EF  3A02               	xorlw	2	; case 110
  4789  01F0  1903               	skipnz
  4790  01F1  28F3               	goto	l1170
  4791  01F2  3A01               	xorlw	1	; case 111
  4792  01F3  1903               	skipnz
  4793  01F4  28FC               	goto	l1172
  4794  01F5  3A1F               	xorlw	31	; case 112
  4795  01F6  1903               	skipnz
  4796  01F7  2905               	goto	l1174
  4797  01F8  3A03               	xorlw	3	; case 115
  4798  01F9  1903               	skipnz
  4799  01FA  290E               	goto	l1176
  4800  01FB  3A07               	xorlw	7	; case 116
  4801  01FC  1903               	skipnz
  4802  01FD  2917               	goto	l1178
  4803  01FE  3A01               	xorlw	1	; case 117
  4804  01FF  1903               	skipnz
  4805  0200  2920               	goto	l1180
  4806  0201  3A0C               	xorlw	12	; case 121
  4807  0202  1903               	skipnz
  4808  0203  2929               	goto	l1182
  4809  0204  2932               	goto	l1183
  4810  0205                     l1184:
  4811  0205  0008               	return
  4812  0206                     __end_of_LCD_Digit4Num:
  4813                           
  4814                           	psect	text19
  4815  0302                     __ptext19:	
  4816 ;; *************** function _LCD_Digit3Num *****************
  4817 ;; Defined at:
  4818 ;;		line 257 in file "main.c"
  4819 ;; Parameters:    Size  Location     Type
  4820 ;;  num             1    wreg     unsigned char 
  4821 ;; Auto vars:     Size  Location     Type
  4822 ;;  num             1    2[BANK0 ] unsigned char 
  4823 ;; Return value:  Size  Location     Type
  4824 ;;                  1    wreg      void 
  4825 ;; Registers used:
  4826 ;;		wreg, fsr0l, fsr0h, status,2, status,0
  4827 ;; Tracked objects:
  4828 ;;		On entry : 0/0
  4829 ;;		On exit  : 0/0
  4830 ;;		Unchanged: 0/0
  4831 ;; Data sizes:     COMMON   BANK0   BANK1   BANK2   BANK3   BANK4   BANK5   BANK6   BANK7   BANK8   BANK9  BANK10  BANK1
      +1  BANK12
  4832 ;;      Params:         0       0       0       0       0       0       0       0       0       0       0       0       
      +0       0
  4833 ;;      Locals:         0       1       0       0       0       0       0       0       0       0       0       0       
      +0       0
  4834 ;;      Temps:          0       2       0       0       0       0       0       0       0       0       0       0       
      +0       0
  4835 ;;      Totals:         0       3       0       0       0       0       0       0       0       0       0       0       
      +0       0
  4836 ;;Total ram usage:        3 bytes
  4837 ;; Hardware stack levels used:    1
  4838 ;; Hardware stack levels required when called:    4
  4839 ;; This function calls:
  4840 ;;		Nothing
  4841 ;; This function is called by:
  4842 ;;		_main
  4843 ;; This function uses a non-reentrant model
  4844 ;;
  4845                           
  4846                           
  4847                           ;psect for function _LCD_Digit3Num
  4848  0302                     _LCD_Digit3Num:
  4849                           
  4850                           ;incstack = 0
  4851                           ; Regs used in _LCD_Digit3Num: [wreg-fsr0h+status,2+status,0]
  4852                           ;LCD_Digit3Num@num stored from wreg
  4853  0302  0020               	movlb	0	; select bank0
  4854  0303  00CE               	movwf	LCD_Digit3Num@num
  4855  0304                     l3255:
  4856                           
  4857                           ;main.c: 257: void LCD_Digit3Num (unsigned char num);main.c: 258: {;main.c: 259:     swi
      +                          tch (num)
  4858  0304  2B9E               	goto	l3257
  4859  0305                     l1096:	
  4860                           ;main.c: 260:     {;main.c: 261:         case 0: LCDDATA10bits.SEG13COM3 = 1; LCDDATA9bi
      +                          ts.SEG1COM3 = 1; LCDDATA3bits.SEG1COM1 = 1; LCDDATA0bits.SEG1COM0 = 1; LCDDATA4bits.SEG1
      +                          3COM1 = 1; LCDDATA7bits.SEG13COM2 = 1; LCDDATA6bits.SEG1COM2 = 0; break;
  4861                           
  4862  0305  002F               	movlb	15	; select bank15
  4863  0306  16AA               	bsf	42,5	;volatile
  4864  0307  14A9               	bsf	41,1	;volatile
  4865  0308  14A3               	bsf	35,1	;volatile
  4866  0309  14A0               	bsf	32,1	;volatile
  4867  030A  16A4               	bsf	36,5	;volatile
  4868  030B  16A7               	bsf	39,5	;volatile
  4869  030C  10A6               	bcf	38,1	;volatile
  4870  030D  2BD8               	goto	l1114
  4871  030E                     l1098:	
  4872                           ;main.c: 262:         case 1: LCDDATA10bits.SEG13COM3 = 0; LCDDATA9bits.SEG1COM3 = 1; LC
      +                          DDATA3bits.SEG1COM1 = 1; LCDDATA0bits.SEG1COM0 = 0; LCDDATA4bits.SEG13COM1 = 0; LCDDATA7
      +                          bits.SEG13COM2 = 0; LCDDATA6bits.SEG1COM2 = 0; break;
  4873                           
  4874  030E  002F               	movlb	15	; select bank15
  4875  030F  12AA               	bcf	42,5	;volatile
  4876  0310  14A9               	bsf	41,1	;volatile
  4877  0311  14A3               	bsf	35,1	;volatile
  4878  0312  10A0               	bcf	32,1	;volatile
  4879  0313  12A4               	bcf	36,5	;volatile
  4880  0314  12A7               	bcf	39,5	;volatile
  4881  0315  10A6               	bcf	38,1	;volatile
  4882  0316  2BD8               	goto	l1114
  4883  0317                     l1099:	
  4884                           ;main.c: 263:         case 2: LCDDATA10bits.SEG13COM3 = 1; LCDDATA9bits.SEG1COM3 = 1; LC
      +                          DDATA3bits.SEG1COM1 = 0; LCDDATA0bits.SEG1COM0 = 1; LCDDATA4bits.SEG13COM1 = 1; LCDDATA7
      +                          bits.SEG13COM2 = 0; LCDDATA6bits.SEG1COM2 = 1; break;
  4885                           
  4886  0317  002F               	movlb	15	; select bank15
  4887  0318  16AA               	bsf	42,5	;volatile
  4888  0319  14A9               	bsf	41,1	;volatile
  4889  031A  10A3               	bcf	35,1	;volatile
  4890  031B  14A0               	bsf	32,1	;volatile
  4891  031C  16A4               	bsf	36,5	;volatile
  4892  031D  12A7               	bcf	39,5	;volatile
  4893  031E  14A6               	bsf	38,1	;volatile
  4894  031F  2BD8               	goto	l1114
  4895  0320                     l1100:	
  4896                           ;main.c: 264:         case 3: LCDDATA10bits.SEG13COM3 = 1; LCDDATA9bits.SEG1COM3 = 1; LC
      +                          DDATA3bits.SEG1COM1 = 1; LCDDATA0bits.SEG1COM0 = 1; LCDDATA4bits.SEG13COM1 = 0; LCDDATA7
      +                          bits.SEG13COM2 = 0; LCDDATA6bits.SEG1COM2 = 1; break;
  4897                           
  4898  0320  002F               	movlb	15	; select bank15
  4899  0321  16AA               	bsf	42,5	;volatile
  4900  0322  14A9               	bsf	41,1	;volatile
  4901  0323  14A3               	bsf	35,1	;volatile
  4902  0324  14A0               	bsf	32,1	;volatile
  4903  0325  12A4               	bcf	36,5	;volatile
  4904  0326  12A7               	bcf	39,5	;volatile
  4905  0327  14A6               	bsf	38,1	;volatile
  4906  0328  2BD8               	goto	l1114
  4907  0329                     l1101:	
  4908                           ;main.c: 265:         case 4: LCDDATA10bits.SEG13COM3 = 0; LCDDATA9bits.SEG1COM3 = 1; LC
      +                          DDATA3bits.SEG1COM1 = 1; LCDDATA0bits.SEG1COM0 = 0; LCDDATA4bits.SEG13COM1 = 0; LCDDATA7
      +                          bits.SEG13COM2 = 1; LCDDATA6bits.SEG1COM2 = 1; break;
  4909                           
  4910  0329  002F               	movlb	15	; select bank15
  4911  032A  12AA               	bcf	42,5	;volatile
  4912  032B  14A9               	bsf	41,1	;volatile
  4913  032C  14A3               	bsf	35,1	;volatile
  4914  032D  10A0               	bcf	32,1	;volatile
  4915  032E  12A4               	bcf	36,5	;volatile
  4916  032F  16A7               	bsf	39,5	;volatile
  4917  0330  14A6               	bsf	38,1	;volatile
  4918  0331  2BD8               	goto	l1114
  4919  0332                     l1102:	
  4920                           ;main.c: 266:         case 5: LCDDATA10bits.SEG13COM3 = 1; LCDDATA9bits.SEG1COM3 = 0; LC
      +                          DDATA3bits.SEG1COM1 = 1; LCDDATA0bits.SEG1COM0 = 1; LCDDATA4bits.SEG13COM1 = 0; LCDDATA7
      +                          bits.SEG13COM2 = 1; LCDDATA6bits.SEG1COM2 = 1; break;
  4921                           
  4922  0332  002F               	movlb	15	; select bank15
  4923  0333  16AA               	bsf	42,5	;volatile
  4924  0334  10A9               	bcf	41,1	;volatile
  4925  0335  14A3               	bsf	35,1	;volatile
  4926  0336  14A0               	bsf	32,1	;volatile
  4927  0337  12A4               	bcf	36,5	;volatile
  4928  0338  16A7               	bsf	39,5	;volatile
  4929  0339  14A6               	bsf	38,1	;volatile
  4930  033A  2BD8               	goto	l1114
  4931  033B                     l1103:	
  4932                           ;main.c: 267:         case 6: LCDDATA10bits.SEG13COM3 = 1; LCDDATA9bits.SEG1COM3 = 0; LC
      +                          DDATA3bits.SEG1COM1 = 1; LCDDATA0bits.SEG1COM0 = 1; LCDDATA4bits.SEG13COM1 = 1; LCDDATA7
      +                          bits.SEG13COM2 = 1; LCDDATA6bits.SEG1COM2 = 1; break;
  4933                           
  4934  033B  002F               	movlb	15	; select bank15
  4935  033C  16AA               	bsf	42,5	;volatile
  4936  033D  10A9               	bcf	41,1	;volatile
  4937  033E  14A3               	bsf	35,1	;volatile
  4938  033F  14A0               	bsf	32,1	;volatile
  4939  0340  16A4               	bsf	36,5	;volatile
  4940  0341  16A7               	bsf	39,5	;volatile
  4941  0342  14A6               	bsf	38,1	;volatile
  4942  0343  2BD8               	goto	l1114
  4943  0344                     l1104:	
  4944                           ;main.c: 268:         case 7: LCDDATA10bits.SEG13COM3 = 1; LCDDATA9bits.SEG1COM3 = 1; LC
      +                          DDATA3bits.SEG1COM1 = 1; LCDDATA0bits.SEG1COM0 = 0; LCDDATA4bits.SEG13COM1 = 0; LCDDATA7
      +                          bits.SEG13COM2 = 0; LCDDATA6bits.SEG1COM2 = 0; break;
  4945                           
  4946  0344  002F               	movlb	15	; select bank15
  4947  0345  16AA               	bsf	42,5	;volatile
  4948  0346  14A9               	bsf	41,1	;volatile
  4949  0347  14A3               	bsf	35,1	;volatile
  4950  0348  10A0               	bcf	32,1	;volatile
  4951  0349  12A4               	bcf	36,5	;volatile
  4952  034A  12A7               	bcf	39,5	;volatile
  4953  034B  10A6               	bcf	38,1	;volatile
  4954  034C  2BD8               	goto	l1114
  4955  034D                     l1105:	
  4956                           ;main.c: 269:         case 8: LCDDATA10bits.SEG13COM3 = 1; LCDDATA9bits.SEG1COM3 = 1; LC
      +                          DDATA3bits.SEG1COM1 = 1; LCDDATA0bits.SEG1COM0 = 1; LCDDATA4bits.SEG13COM1 = 1; LCDDATA7
      +                          bits.SEG13COM2 = 1; LCDDATA6bits.SEG1COM2 = 1; break;
  4957                           
  4958  034D  002F               	movlb	15	; select bank15
  4959  034E  16AA               	bsf	42,5	;volatile
  4960  034F  14A9               	bsf	41,1	;volatile
  4961  0350  14A3               	bsf	35,1	;volatile
  4962  0351  14A0               	bsf	32,1	;volatile
  4963  0352  16A4               	bsf	36,5	;volatile
  4964  0353  16A7               	bsf	39,5	;volatile
  4965  0354  14A6               	bsf	38,1	;volatile
  4966  0355  2BD8               	goto	l1114
  4967  0356                     l1106:	
  4968                           ;main.c: 270:         case 9: LCDDATA10bits.SEG13COM3 = 1; LCDDATA9bits.SEG1COM3 = 1; LC
      +                          DDATA3bits.SEG1COM1 = 1; LCDDATA0bits.SEG1COM0 = 1; LCDDATA4bits.SEG13COM1 = 0; LCDDATA7
      +                          bits.SEG13COM2 = 1; LCDDATA6bits.SEG1COM2 = 1; break;
  4969                           
  4970  0356  002F               	movlb	15	; select bank15
  4971  0357  16AA               	bsf	42,5	;volatile
  4972  0358  14A9               	bsf	41,1	;volatile
  4973  0359  14A3               	bsf	35,1	;volatile
  4974  035A  14A0               	bsf	32,1	;volatile
  4975  035B  12A4               	bcf	36,5	;volatile
  4976  035C  16A7               	bsf	39,5	;volatile
  4977  035D  14A6               	bsf	38,1	;volatile
  4978  035E  2BD8               	goto	l1114
  4979  035F                     l1107:	
  4980                           ;main.c: 271:         case 0x0A: LCDDATA10bits.SEG13COM3 = 1; LCDDATA9bits.SEG1COM3 = 1;
      +                           LCDDATA3bits.SEG1COM1 = 1; LCDDATA0bits.SEG1COM0 = 0; LCDDATA4bits.SEG13COM1 = 1; LCDDA
      +                          TA7bits.SEG13COM2 = 1; LCDDATA6bits.SEG1COM2 = 1; break;
  4981                           
  4982  035F  002F               	movlb	15	; select bank15
  4983  0360  16AA               	bsf	42,5	;volatile
  4984  0361  14A9               	bsf	41,1	;volatile
  4985  0362  14A3               	bsf	35,1	;volatile
  4986  0363  10A0               	bcf	32,1	;volatile
  4987  0364  16A4               	bsf	36,5	;volatile
  4988  0365  16A7               	bsf	39,5	;volatile
  4989  0366  14A6               	bsf	38,1	;volatile
  4990  0367  2BD8               	goto	l1114
  4991  0368                     l1108:	
  4992                           ;main.c: 272:         case 0x0B: LCDDATA10bits.SEG13COM3 = 0; LCDDATA9bits.SEG1COM3 = 0;
      +                           LCDDATA3bits.SEG1COM1 = 1; LCDDATA0bits.SEG1COM0 = 1; LCDDATA4bits.SEG13COM1 = 1; LCDDA
      +                          TA7bits.SEG13COM2 = 1; LCDDATA6bits.SEG1COM2 = 1; break;
  4993                           
  4994  0368  002F               	movlb	15	; select bank15
  4995  0369  12AA               	bcf	42,5	;volatile
  4996  036A  10A9               	bcf	41,1	;volatile
  4997  036B  14A3               	bsf	35,1	;volatile
  4998  036C  14A0               	bsf	32,1	;volatile
  4999  036D  16A4               	bsf	36,5	;volatile
  5000  036E  16A7               	bsf	39,5	;volatile
  5001  036F  14A6               	bsf	38,1	;volatile
  5002  0370  2BD8               	goto	l1114
  5003  0371                     l1109:	
  5004                           ;main.c: 273:         case 0x0C: LCDDATA10bits.SEG13COM3 = 1; LCDDATA9bits.SEG1COM3 = 0;
      +                           LCDDATA3bits.SEG1COM1 = 0; LCDDATA0bits.SEG1COM0 = 1; LCDDATA4bits.SEG13COM1 = 1; LCDDA
      +                          TA7bits.SEG13COM2 = 1; LCDDATA6bits.SEG1COM2 = 0; break;
  5005                           
  5006  0371  002F               	movlb	15	; select bank15
  5007  0372  16AA               	bsf	42,5	;volatile
  5008  0373  10A9               	bcf	41,1	;volatile
  5009  0374  10A3               	bcf	35,1	;volatile
  5010  0375  14A0               	bsf	32,1	;volatile
  5011  0376  16A4               	bsf	36,5	;volatile
  5012  0377  16A7               	bsf	39,5	;volatile
  5013  0378  10A6               	bcf	38,1	;volatile
  5014  0379  2BD8               	goto	l1114
  5015  037A                     l1110:	
  5016                           ;main.c: 274:         case 0x0D: LCDDATA10bits.SEG13COM3 = 0; LCDDATA9bits.SEG1COM3 = 1;
      +                           LCDDATA3bits.SEG1COM1 = 1; LCDDATA0bits.SEG1COM0 = 1; LCDDATA4bits.SEG13COM1 = 1; LCDDA
      +                          TA7bits.SEG13COM2 = 0; LCDDATA6bits.SEG1COM2 = 1; break;
  5017                           
  5018  037A  002F               	movlb	15	; select bank15
  5019  037B  12AA               	bcf	42,5	;volatile
  5020  037C  14A9               	bsf	41,1	;volatile
  5021  037D  14A3               	bsf	35,1	;volatile
  5022  037E  14A0               	bsf	32,1	;volatile
  5023  037F  16A4               	bsf	36,5	;volatile
  5024  0380  12A7               	bcf	39,5	;volatile
  5025  0381  14A6               	bsf	38,1	;volatile
  5026  0382  2BD8               	goto	l1114
  5027  0383                     l1111:	
  5028                           ;main.c: 275:         case 0x0E: LCDDATA10bits.SEG13COM3 = 1; LCDDATA9bits.SEG1COM3 = 0;
      +                           LCDDATA3bits.SEG1COM1 = 0; LCDDATA0bits.SEG1COM0 = 1; LCDDATA4bits.SEG13COM1 = 1; LCDDA
      +                          TA7bits.SEG13COM2 = 1; LCDDATA6bits.SEG1COM2 = 1; break;
  5029                           
  5030  0383  002F               	movlb	15	; select bank15
  5031  0384  16AA               	bsf	42,5	;volatile
  5032  0385  10A9               	bcf	41,1	;volatile
  5033  0386  10A3               	bcf	35,1	;volatile
  5034  0387  14A0               	bsf	32,1	;volatile
  5035  0388  16A4               	bsf	36,5	;volatile
  5036  0389  16A7               	bsf	39,5	;volatile
  5037  038A  14A6               	bsf	38,1	;volatile
  5038  038B  2BD8               	goto	l1114
  5039  038C                     l1112:	
  5040                           ;main.c: 276:         case 0x0F: LCDDATA10bits.SEG13COM3 = 1; LCDDATA9bits.SEG1COM3 = 0;
      +                           LCDDATA3bits.SEG1COM1 = 0; LCDDATA0bits.SEG1COM0 = 0; LCDDATA4bits.SEG13COM1 = 1; LCDDA
      +                          TA7bits.SEG13COM2 = 1; LCDDATA6bits.SEG1COM2 = 1; break;
  5041                           
  5042  038C  002F               	movlb	15	; select bank15
  5043  038D  16AA               	bsf	42,5	;volatile
  5044  038E  10A9               	bcf	41,1	;volatile
  5045  038F  10A3               	bcf	35,1	;volatile
  5046  0390  10A0               	bcf	32,1	;volatile
  5047  0391  16A4               	bsf	36,5	;volatile
  5048  0392  16A7               	bsf	39,5	;volatile
  5049  0393  14A6               	bsf	38,1	;volatile
  5050  0394  2BD8               	goto	l1114
  5051  0395                     l1113:	
  5052                           ;main.c: 278:         default: LCDDATA10bits.SEG13COM3 = 0; LCDDATA9bits.SEG1COM3 = 0; L
      +                          CDDATA3bits.SEG1COM1 = 0; LCDDATA0bits.SEG1COM0 = 0; LCDDATA4bits.SEG13COM1 = 0; LCDDATA
      +                          7bits.SEG13COM2 = 0; LCDDATA6bits.SEG1COM2 = 0;
  5053                           
  5054  0395  002F               	movlb	15	; select bank15
  5055  0396  12AA               	bcf	42,5	;volatile
  5056  0397  10A9               	bcf	41,1	;volatile
  5057  0398  10A3               	bcf	35,1	;volatile
  5058  0399  10A0               	bcf	32,1	;volatile
  5059  039A  12A4               	bcf	36,5	;volatile
  5060  039B  12A7               	bcf	39,5	;volatile
  5061  039C  10A6               	bcf	38,1	;volatile
  5062                           
  5063                           ;main.c: 279:     }
  5064  039D  2BD8               	goto	l1114
  5065  039E                     l3257:
  5066  039E  084E               	movf	LCD_Digit3Num@num,w
  5067  039F  00CC               	movwf	??_LCD_Digit3Num
  5068  03A0  01CD               	clrf	??_LCD_Digit3Num+1
  5069                           
  5070                           ; Switch on 2 bytes has been partitioned into a top level switch of size 1, and 1 sub-sw
      +                          itches
  5071                           ; Switch size 1, requested type "simple"
  5072                           ; Number of cases is 1, Range of values is 0 to 0
  5073                           ; switch strategies available:
  5074                           ; Name         Instructions Cycles
  5075                           ; simple_byte            4     3 (average)
  5076                           ; direct_byte            8     6 (fixed)
  5077                           ; jumptable            260     6 (fixed)
  5078                           ;	Chosen strategy is simple_byte
  5079  03A1  084D               	movf	??_LCD_Digit3Num+1,w
  5080  03A2  3A00               	xorlw	0	; case 0
  5081  03A3  1903               	skipnz
  5082  03A4  2BA6               	goto	l3451
  5083  03A5  2B95               	goto	l1113
  5084  03A6                     l3451:
  5085                           
  5086                           ; Switch size 1, requested type "simple"
  5087                           ; Number of cases is 16, Range of values is 0 to 15
  5088                           ; switch strategies available:
  5089                           ; Name         Instructions Cycles
  5090                           ; direct_byte           38     6 (fixed)
  5091                           ; simple_byte           49    25 (average)
  5092                           ; jumptable            260     6 (fixed)
  5093                           ;	Chosen strategy is simple_byte
  5094  03A6  084C               	movf	??_LCD_Digit3Num,w
  5095  03A7  3A00               	xorlw	0	; case 0
  5096  03A8  1903               	skipnz
  5097  03A9  2B05               	goto	l1096
  5098  03AA  3A01               	xorlw	1	; case 1
  5099  03AB  1903               	skipnz
  5100  03AC  2B0E               	goto	l1098
  5101  03AD  3A03               	xorlw	3	; case 2
  5102  03AE  1903               	skipnz
  5103  03AF  2B17               	goto	l1099
  5104  03B0  3A01               	xorlw	1	; case 3
  5105  03B1  1903               	skipnz
  5106  03B2  2B20               	goto	l1100
  5107  03B3  3A07               	xorlw	7	; case 4
  5108  03B4  1903               	skipnz
  5109  03B5  2B29               	goto	l1101
  5110  03B6  3A01               	xorlw	1	; case 5
  5111  03B7  1903               	skipnz
  5112  03B8  2B32               	goto	l1102
  5113  03B9  3A03               	xorlw	3	; case 6
  5114  03BA  1903               	skipnz
  5115  03BB  2B3B               	goto	l1103
  5116  03BC  3A01               	xorlw	1	; case 7
  5117  03BD  1903               	skipnz
  5118  03BE  2B44               	goto	l1104
  5119  03BF  3A0F               	xorlw	15	; case 8
  5120  03C0  1903               	skipnz
  5121  03C1  2B4D               	goto	l1105
  5122  03C2  3A01               	xorlw	1	; case 9
  5123  03C3  1903               	skipnz
  5124  03C4  2B56               	goto	l1106
  5125  03C5  3A03               	xorlw	3	; case 10
  5126  03C6  1903               	skipnz
  5127  03C7  2B5F               	goto	l1107
  5128  03C8  3A01               	xorlw	1	; case 11
  5129  03C9  1903               	skipnz
  5130  03CA  2B68               	goto	l1108
  5131  03CB  3A07               	xorlw	7	; case 12
  5132  03CC  1903               	skipnz
  5133  03CD  2B71               	goto	l1109
  5134  03CE  3A01               	xorlw	1	; case 13
  5135  03CF  1903               	skipnz
  5136  03D0  2B7A               	goto	l1110
  5137  03D1  3A03               	xorlw	3	; case 14
  5138  03D2  1903               	skipnz
  5139  03D3  2B83               	goto	l1111
  5140  03D4  3A01               	xorlw	1	; case 15
  5141  03D5  1903               	skipnz
  5142  03D6  2B8C               	goto	l1112
  5143  03D7  2B95               	goto	l1113
  5144  03D8                     l1114:
  5145  03D8  0008               	return
  5146  03D9                     __end_of_LCD_Digit3Num:
  5147                           
  5148                           	psect	text20
  5149  03D9                     __ptext20:	
  5150 ;; *************** function _LCD_Digit2Num *****************
  5151 ;; Defined at:
  5152 ;;		line 232 in file "main.c"
  5153 ;; Parameters:    Size  Location     Type
  5154 ;;  num             1    wreg     unsigned char 
  5155 ;; Auto vars:     Size  Location     Type
  5156 ;;  num             1    2[BANK0 ] unsigned char 
  5157 ;; Return value:  Size  Location     Type
  5158 ;;                  1    wreg      void 
  5159 ;; Registers used:
  5160 ;;		wreg, fsr0l, fsr0h, status,2, status,0
  5161 ;; Tracked objects:
  5162 ;;		On entry : 0/0
  5163 ;;		On exit  : 0/0
  5164 ;;		Unchanged: 0/0
  5165 ;; Data sizes:     COMMON   BANK0   BANK1   BANK2   BANK3   BANK4   BANK5   BANK6   BANK7   BANK8   BANK9  BANK10  BANK1
      +1  BANK12
  5166 ;;      Params:         0       0       0       0       0       0       0       0       0       0       0       0       
      +0       0
  5167 ;;      Locals:         0       1       0       0       0       0       0       0       0       0       0       0       
      +0       0
  5168 ;;      Temps:          0       2       0       0       0       0       0       0       0       0       0       0       
      +0       0
  5169 ;;      Totals:         0       3       0       0       0       0       0       0       0       0       0       0       
      +0       0
  5170 ;;Total ram usage:        3 bytes
  5171 ;; Hardware stack levels used:    1
  5172 ;; Hardware stack levels required when called:    4
  5173 ;; This function calls:
  5174 ;;		Nothing
  5175 ;; This function is called by:
  5176 ;;		_main
  5177 ;; This function uses a non-reentrant model
  5178 ;;
  5179                           
  5180                           
  5181                           ;psect for function _LCD_Digit2Num
  5182  03D9                     _LCD_Digit2Num:
  5183                           
  5184                           ;incstack = 0
  5185                           ; Regs used in _LCD_Digit2Num: [wreg-fsr0h+status,2+status,0]
  5186                           ;LCD_Digit2Num@num stored from wreg
  5187  03D9  0020               	movlb	0	; select bank0
  5188  03DA  00CE               	movwf	LCD_Digit2Num@num
  5189  03DB                     l3245:
  5190                           
  5191                           ;main.c: 232: void LCD_Digit2Num (unsigned char num);main.c: 233: {;main.c: 234:     swi
      +                          tch (num)
  5192  03DB  2C75               	goto	l3247
  5193  03DC                     l1074:	
  5194                           ;main.c: 235:     {;main.c: 236:         case 0: LCDDATA9bits.SEG5COM3 = 1; LCDDATA10bit
      +                          s.SEG12COM3 = 1; LCDDATA4bits.SEG12COM1 = 1; LCDDATA1bits.SEG12COM0 = 1; LCDDATA3bits.SE
      +                          G5COM1 = 1; LCDDATA6bits.SEG5COM2 = 1; LCDDATA7bits.SEG12COM2 = 0; break;
  5195                           
  5196  03DC  002F               	movlb	15	; select bank15
  5197  03DD  16A9               	bsf	41,5	;volatile
  5198  03DE  162A               	bsf	42,4	;volatile
  5199  03DF  1624               	bsf	36,4	;volatile
  5200  03E0  1621               	bsf	33,4	;volatile
  5201  03E1  16A3               	bsf	35,5	;volatile
  5202  03E2  16A6               	bsf	38,5	;volatile
  5203  03E3  1227               	bcf	39,4	;volatile
  5204  03E4  2CAF               	goto	l1092
  5205  03E5                     l1076:	
  5206                           ;main.c: 237:         case 1: LCDDATA9bits.SEG5COM3 = 0; LCDDATA10bits.SEG12COM3 = 1; LC
      +                          DDATA4bits.SEG12COM1 = 1; LCDDATA1bits.SEG12COM0 = 0; LCDDATA3bits.SEG5COM1 = 0; LCDDATA
      +                          6bits.SEG5COM2 = 0; LCDDATA7bits.SEG12COM2 = 0; break;
  5207                           
  5208  03E5  002F               	movlb	15	; select bank15
  5209  03E6  12A9               	bcf	41,5	;volatile
  5210  03E7  162A               	bsf	42,4	;volatile
  5211  03E8  1624               	bsf	36,4	;volatile
  5212  03E9  1221               	bcf	33,4	;volatile
  5213  03EA  12A3               	bcf	35,5	;volatile
  5214  03EB  12A6               	bcf	38,5	;volatile
  5215  03EC  1227               	bcf	39,4	;volatile
  5216  03ED  2CAF               	goto	l1092
  5217  03EE                     l1077:	
  5218                           ;main.c: 238:         case 2: LCDDATA9bits.SEG5COM3 = 1; LCDDATA10bits.SEG12COM3 = 1; LC
      +                          DDATA4bits.SEG12COM1 = 0; LCDDATA1bits.SEG12COM0 = 1; LCDDATA3bits.SEG5COM1 = 1; LCDDATA
      +                          6bits.SEG5COM2 = 0; LCDDATA7bits.SEG12COM2 = 1; break;
  5219                           
  5220  03EE  002F               	movlb	15	; select bank15
  5221  03EF  16A9               	bsf	41,5	;volatile
  5222  03F0  162A               	bsf	42,4	;volatile
  5223  03F1  1224               	bcf	36,4	;volatile
  5224  03F2  1621               	bsf	33,4	;volatile
  5225  03F3  16A3               	bsf	35,5	;volatile
  5226  03F4  12A6               	bcf	38,5	;volatile
  5227  03F5  1627               	bsf	39,4	;volatile
  5228  03F6  2CAF               	goto	l1092
  5229  03F7                     l1078:	
  5230                           ;main.c: 239:         case 3: LCDDATA9bits.SEG5COM3 = 1; LCDDATA10bits.SEG12COM3 = 1; LC
      +                          DDATA4bits.SEG12COM1 = 1; LCDDATA1bits.SEG12COM0 = 1; LCDDATA3bits.SEG5COM1 = 0; LCDDATA
      +                          6bits.SEG5COM2 = 0; LCDDATA7bits.SEG12COM2 = 1; break;
  5231                           
  5232  03F7  002F               	movlb	15	; select bank15
  5233  03F8  16A9               	bsf	41,5	;volatile
  5234  03F9  162A               	bsf	42,4	;volatile
  5235  03FA  1624               	bsf	36,4	;volatile
  5236  03FB  1621               	bsf	33,4	;volatile
  5237  03FC  12A3               	bcf	35,5	;volatile
  5238  03FD  12A6               	bcf	38,5	;volatile
  5239  03FE  1627               	bsf	39,4	;volatile
  5240  03FF  2CAF               	goto	l1092
  5241  0400                     l1079:	
  5242                           ;main.c: 240:         case 4: LCDDATA9bits.SEG5COM3 = 0; LCDDATA10bits.SEG12COM3 = 1; LC
      +                          DDATA4bits.SEG12COM1 = 1; LCDDATA1bits.SEG12COM0 = 0; LCDDATA3bits.SEG5COM1 = 0; LCDDATA
      +                          6bits.SEG5COM2 = 1; LCDDATA7bits.SEG12COM2 = 1; break;
  5243                           
  5244  0400  002F               	movlb	15	; select bank15
  5245  0401  12A9               	bcf	41,5	;volatile
  5246  0402  162A               	bsf	42,4	;volatile
  5247  0403  1624               	bsf	36,4	;volatile
  5248  0404  1221               	bcf	33,4	;volatile
  5249  0405  12A3               	bcf	35,5	;volatile
  5250  0406  16A6               	bsf	38,5	;volatile
  5251  0407  1627               	bsf	39,4	;volatile
  5252  0408  2CAF               	goto	l1092
  5253  0409                     l1080:	
  5254                           ;main.c: 241:         case 5: LCDDATA9bits.SEG5COM3 = 1; LCDDATA10bits.SEG12COM3 = 0; LC
      +                          DDATA4bits.SEG12COM1 = 1; LCDDATA1bits.SEG12COM0 = 1; LCDDATA3bits.SEG5COM1 = 0; LCDDATA
      +                          6bits.SEG5COM2 = 1; LCDDATA7bits.SEG12COM2 = 1; break;
  5255                           
  5256  0409  002F               	movlb	15	; select bank15
  5257  040A  16A9               	bsf	41,5	;volatile
  5258  040B  122A               	bcf	42,4	;volatile
  5259  040C  1624               	bsf	36,4	;volatile
  5260  040D  1621               	bsf	33,4	;volatile
  5261  040E  12A3               	bcf	35,5	;volatile
  5262  040F  16A6               	bsf	38,5	;volatile
  5263  0410  1627               	bsf	39,4	;volatile
  5264  0411  2CAF               	goto	l1092
  5265  0412                     l1081:	
  5266                           ;main.c: 242:         case 6: LCDDATA9bits.SEG5COM3 = 1; LCDDATA10bits.SEG12COM3 = 0; LC
      +                          DDATA4bits.SEG12COM1 = 1; LCDDATA1bits.SEG12COM0 = 1; LCDDATA3bits.SEG5COM1 = 1; LCDDATA
      +                          6bits.SEG5COM2 = 1; LCDDATA7bits.SEG12COM2 = 1; break;
  5267                           
  5268  0412  002F               	movlb	15	; select bank15
  5269  0413  16A9               	bsf	41,5	;volatile
  5270  0414  122A               	bcf	42,4	;volatile
  5271  0415  1624               	bsf	36,4	;volatile
  5272  0416  1621               	bsf	33,4	;volatile
  5273  0417  16A3               	bsf	35,5	;volatile
  5274  0418  16A6               	bsf	38,5	;volatile
  5275  0419  1627               	bsf	39,4	;volatile
  5276  041A  2CAF               	goto	l1092
  5277  041B                     l1082:	
  5278                           ;main.c: 243:         case 7: LCDDATA9bits.SEG5COM3 = 1; LCDDATA10bits.SEG12COM3 = 1; LC
      +                          DDATA4bits.SEG12COM1 = 1; LCDDATA1bits.SEG12COM0 = 0; LCDDATA3bits.SEG5COM1 = 0; LCDDATA
      +                          6bits.SEG5COM2 = 0; LCDDATA7bits.SEG12COM2 = 0; break;
  5279                           
  5280  041B  002F               	movlb	15	; select bank15
  5281  041C  16A9               	bsf	41,5	;volatile
  5282  041D  162A               	bsf	42,4	;volatile
  5283  041E  1624               	bsf	36,4	;volatile
  5284  041F  1221               	bcf	33,4	;volatile
  5285  0420  12A3               	bcf	35,5	;volatile
  5286  0421  12A6               	bcf	38,5	;volatile
  5287  0422  1227               	bcf	39,4	;volatile
  5288  0423  2CAF               	goto	l1092
  5289  0424                     l1083:	
  5290                           ;main.c: 244:         case 8: LCDDATA9bits.SEG5COM3 = 1; LCDDATA10bits.SEG12COM3 = 1; LC
      +                          DDATA4bits.SEG12COM1 = 1; LCDDATA1bits.SEG12COM0 = 1; LCDDATA3bits.SEG5COM1 = 1; LCDDATA
      +                          6bits.SEG5COM2 = 1; LCDDATA7bits.SEG12COM2 = 1; break;
  5291                           
  5292  0424  002F               	movlb	15	; select bank15
  5293  0425  16A9               	bsf	41,5	;volatile
  5294  0426  162A               	bsf	42,4	;volatile
  5295  0427  1624               	bsf	36,4	;volatile
  5296  0428  1621               	bsf	33,4	;volatile
  5297  0429  16A3               	bsf	35,5	;volatile
  5298  042A  16A6               	bsf	38,5	;volatile
  5299  042B  1627               	bsf	39,4	;volatile
  5300  042C  2CAF               	goto	l1092
  5301  042D                     l1084:	
  5302                           ;main.c: 245:         case 9: LCDDATA9bits.SEG5COM3 = 1; LCDDATA10bits.SEG12COM3 = 1; LC
      +                          DDATA4bits.SEG12COM1 = 1; LCDDATA1bits.SEG12COM0 = 1; LCDDATA3bits.SEG5COM1 = 0; LCDDATA
      +                          6bits.SEG5COM2 = 1; LCDDATA7bits.SEG12COM2 = 1; break;
  5303                           
  5304  042D  002F               	movlb	15	; select bank15
  5305  042E  16A9               	bsf	41,5	;volatile
  5306  042F  162A               	bsf	42,4	;volatile
  5307  0430  1624               	bsf	36,4	;volatile
  5308  0431  1621               	bsf	33,4	;volatile
  5309  0432  12A3               	bcf	35,5	;volatile
  5310  0433  16A6               	bsf	38,5	;volatile
  5311  0434  1627               	bsf	39,4	;volatile
  5312  0435  2CAF               	goto	l1092
  5313  0436                     l1085:	
  5314                           ;main.c: 246:         case 0x0A: LCDDATA9bits.SEG5COM3 = 1; LCDDATA10bits.SEG12COM3 = 1;
      +                           LCDDATA4bits.SEG12COM1 = 1; LCDDATA1bits.SEG12COM0 = 0; LCDDATA3bits.SEG5COM1 = 1; LCDD
      +                          ATA6bits.SEG5COM2 = 1; LCDDATA7bits.SEG12COM2 = 1; break;
  5315                           
  5316  0436  002F               	movlb	15	; select bank15
  5317  0437  16A9               	bsf	41,5	;volatile
  5318  0438  162A               	bsf	42,4	;volatile
  5319  0439  1624               	bsf	36,4	;volatile
  5320  043A  1221               	bcf	33,4	;volatile
  5321  043B  16A3               	bsf	35,5	;volatile
  5322  043C  16A6               	bsf	38,5	;volatile
  5323  043D  1627               	bsf	39,4	;volatile
  5324  043E  2CAF               	goto	l1092
  5325  043F                     l1086:	
  5326                           ;main.c: 247:         case 0x0B: LCDDATA9bits.SEG5COM3 = 0; LCDDATA10bits.SEG12COM3 = 0;
      +                           LCDDATA4bits.SEG12COM1 = 1; LCDDATA1bits.SEG12COM0 = 1; LCDDATA3bits.SEG5COM1 = 1; LCDD
      +                          ATA6bits.SEG5COM2 = 1; LCDDATA7bits.SEG12COM2 = 1; break;
  5327                           
  5328  043F  002F               	movlb	15	; select bank15
  5329  0440  12A9               	bcf	41,5	;volatile
  5330  0441  122A               	bcf	42,4	;volatile
  5331  0442  1624               	bsf	36,4	;volatile
  5332  0443  1621               	bsf	33,4	;volatile
  5333  0444  16A3               	bsf	35,5	;volatile
  5334  0445  16A6               	bsf	38,5	;volatile
  5335  0446  1627               	bsf	39,4	;volatile
  5336  0447  2CAF               	goto	l1092
  5337  0448                     l1087:	
  5338                           ;main.c: 248:         case 0x0C: LCDDATA9bits.SEG5COM3 = 1; LCDDATA10bits.SEG12COM3 = 0;
      +                           LCDDATA4bits.SEG12COM1 = 0; LCDDATA1bits.SEG12COM0 = 1; LCDDATA3bits.SEG5COM1 = 1; LCDD
      +                          ATA6bits.SEG5COM2 = 1; LCDDATA7bits.SEG12COM2 = 0; break;
  5339                           
  5340  0448  002F               	movlb	15	; select bank15
  5341  0449  16A9               	bsf	41,5	;volatile
  5342  044A  122A               	bcf	42,4	;volatile
  5343  044B  1224               	bcf	36,4	;volatile
  5344  044C  1621               	bsf	33,4	;volatile
  5345  044D  16A3               	bsf	35,5	;volatile
  5346  044E  16A6               	bsf	38,5	;volatile
  5347  044F  1227               	bcf	39,4	;volatile
  5348  0450  2CAF               	goto	l1092
  5349  0451                     l1088:	
  5350                           ;main.c: 249:         case 0x0D: LCDDATA9bits.SEG5COM3 = 0; LCDDATA10bits.SEG12COM3 = 1;
      +                           LCDDATA4bits.SEG12COM1 = 1; LCDDATA1bits.SEG12COM0 = 1; LCDDATA3bits.SEG5COM1 = 1; LCDD
      +                          ATA6bits.SEG5COM2 = 0; LCDDATA7bits.SEG12COM2 = 1; break;
  5351                           
  5352  0451  002F               	movlb	15	; select bank15
  5353  0452  12A9               	bcf	41,5	;volatile
  5354  0453  162A               	bsf	42,4	;volatile
  5355  0454  1624               	bsf	36,4	;volatile
  5356  0455  1621               	bsf	33,4	;volatile
  5357  0456  16A3               	bsf	35,5	;volatile
  5358  0457  12A6               	bcf	38,5	;volatile
  5359  0458  1627               	bsf	39,4	;volatile
  5360  0459  2CAF               	goto	l1092
  5361  045A                     l1089:	
  5362                           ;main.c: 250:         case 0x0E: LCDDATA9bits.SEG5COM3 = 1; LCDDATA10bits.SEG12COM3 = 0;
      +                           LCDDATA4bits.SEG12COM1 = 0; LCDDATA1bits.SEG12COM0 = 1; LCDDATA3bits.SEG5COM1 = 1; LCDD
      +                          ATA6bits.SEG5COM2 = 1; LCDDATA7bits.SEG12COM2 = 1; break;
  5363                           
  5364  045A  002F               	movlb	15	; select bank15
  5365  045B  16A9               	bsf	41,5	;volatile
  5366  045C  122A               	bcf	42,4	;volatile
  5367  045D  1224               	bcf	36,4	;volatile
  5368  045E  1621               	bsf	33,4	;volatile
  5369  045F  16A3               	bsf	35,5	;volatile
  5370  0460  16A6               	bsf	38,5	;volatile
  5371  0461  1627               	bsf	39,4	;volatile
  5372  0462  2CAF               	goto	l1092
  5373  0463                     l1090:	
  5374                           ;main.c: 251:         case 0x0F: LCDDATA9bits.SEG5COM3 = 1; LCDDATA10bits.SEG12COM3 = 0;
      +                           LCDDATA4bits.SEG12COM1 = 0; LCDDATA1bits.SEG12COM0 = 0; LCDDATA3bits.SEG5COM1 = 1; LCDD
      +                          ATA6bits.SEG5COM2 = 1; LCDDATA7bits.SEG12COM2 = 1; break;
  5375                           
  5376  0463  002F               	movlb	15	; select bank15
  5377  0464  16A9               	bsf	41,5	;volatile
  5378  0465  122A               	bcf	42,4	;volatile
  5379  0466  1224               	bcf	36,4	;volatile
  5380  0467  1221               	bcf	33,4	;volatile
  5381  0468  16A3               	bsf	35,5	;volatile
  5382  0469  16A6               	bsf	38,5	;volatile
  5383  046A  1627               	bsf	39,4	;volatile
  5384  046B  2CAF               	goto	l1092
  5385  046C                     l1091:	
  5386                           ;main.c: 253:         default: LCDDATA9bits.SEG5COM3 = 0; LCDDATA10bits.SEG12COM3 = 0; L
      +                          CDDATA4bits.SEG12COM1 = 0; LCDDATA1bits.SEG12COM0 = 0; LCDDATA3bits.SEG5COM1 = 0; LCDDAT
      +                          A6bits.SEG5COM2 = 0; LCDDATA7bits.SEG12COM2 = 0;
  5387                           
  5388  046C  002F               	movlb	15	; select bank15
  5389  046D  12A9               	bcf	41,5	;volatile
  5390  046E  122A               	bcf	42,4	;volatile
  5391  046F  1224               	bcf	36,4	;volatile
  5392  0470  1221               	bcf	33,4	;volatile
  5393  0471  12A3               	bcf	35,5	;volatile
  5394  0472  12A6               	bcf	38,5	;volatile
  5395  0473  1227               	bcf	39,4	;volatile
  5396                           
  5397                           ;main.c: 254:     }
  5398  0474  2CAF               	goto	l1092
  5399  0475                     l3247:
  5400  0475  084E               	movf	LCD_Digit2Num@num,w
  5401  0476  00CC               	movwf	??_LCD_Digit2Num
  5402  0477  01CD               	clrf	??_LCD_Digit2Num+1
  5403                           
  5404                           ; Switch on 2 bytes has been partitioned into a top level switch of size 1, and 1 sub-sw
      +                          itches
  5405                           ; Switch size 1, requested type "simple"
  5406                           ; Number of cases is 1, Range of values is 0 to 0
  5407                           ; switch strategies available:
  5408                           ; Name         Instructions Cycles
  5409                           ; simple_byte            4     3 (average)
  5410                           ; direct_byte            8     6 (fixed)
  5411                           ; jumptable            260     6 (fixed)
  5412                           ;	Chosen strategy is simple_byte
  5413  0478  084D               	movf	??_LCD_Digit2Num+1,w
  5414  0479  3A00               	xorlw	0	; case 0
  5415  047A  1903               	skipnz
  5416  047B  2C7D               	goto	l3453
  5417  047C  2C6C               	goto	l1091
  5418  047D                     l3453:
  5419                           
  5420                           ; Switch size 1, requested type "simple"
  5421                           ; Number of cases is 16, Range of values is 0 to 15
  5422                           ; switch strategies available:
  5423                           ; Name         Instructions Cycles
  5424                           ; direct_byte           38     6 (fixed)
  5425                           ; simple_byte           49    25 (average)
  5426                           ; jumptable            260     6 (fixed)
  5427                           ;	Chosen strategy is simple_byte
  5428  047D  084C               	movf	??_LCD_Digit2Num,w
  5429  047E  3A00               	xorlw	0	; case 0
  5430  047F  1903               	skipnz
  5431  0480  2BDC               	goto	l1074
  5432  0481  3A01               	xorlw	1	; case 1
  5433  0482  1903               	skipnz
  5434  0483  2BE5               	goto	l1076
  5435  0484  3A03               	xorlw	3	; case 2
  5436  0485  1903               	skipnz
  5437  0486  2BEE               	goto	l1077
  5438  0487  3A01               	xorlw	1	; case 3
  5439  0488  1903               	skipnz
  5440  0489  2BF7               	goto	l1078
  5441  048A  3A07               	xorlw	7	; case 4
  5442  048B  1903               	skipnz
  5443  048C  2C00               	goto	l1079
  5444  048D  3A01               	xorlw	1	; case 5
  5445  048E  1903               	skipnz
  5446  048F  2C09               	goto	l1080
  5447  0490  3A03               	xorlw	3	; case 6
  5448  0491  1903               	skipnz
  5449  0492  2C12               	goto	l1081
  5450  0493  3A01               	xorlw	1	; case 7
  5451  0494  1903               	skipnz
  5452  0495  2C1B               	goto	l1082
  5453  0496  3A0F               	xorlw	15	; case 8
  5454  0497  1903               	skipnz
  5455  0498  2C24               	goto	l1083
  5456  0499  3A01               	xorlw	1	; case 9
  5457  049A  1903               	skipnz
  5458  049B  2C2D               	goto	l1084
  5459  049C  3A03               	xorlw	3	; case 10
  5460  049D  1903               	skipnz
  5461  049E  2C36               	goto	l1085
  5462  049F  3A01               	xorlw	1	; case 11
  5463  04A0  1903               	skipnz
  5464  04A1  2C3F               	goto	l1086
  5465  04A2  3A07               	xorlw	7	; case 12
  5466  04A3  1903               	skipnz
  5467  04A4  2C48               	goto	l1087
  5468  04A5  3A01               	xorlw	1	; case 13
  5469  04A6  1903               	skipnz
  5470  04A7  2C51               	goto	l1088
  5471  04A8  3A03               	xorlw	3	; case 14
  5472  04A9  1903               	skipnz
  5473  04AA  2C5A               	goto	l1089
  5474  04AB  3A01               	xorlw	1	; case 15
  5475  04AC  1903               	skipnz
  5476  04AD  2C63               	goto	l1090
  5477  04AE  2C6C               	goto	l1091
  5478  04AF                     l1092:
  5479  04AF  0008               	return
  5480  04B0                     __end_of_LCD_Digit2Num:
  5481                           
  5482                           	psect	text21
  5483  04B0                     __ptext21:	
  5484 ;; *************** function _LCD_Digit1Num *****************
  5485 ;; Defined at:
  5486 ;;		line 207 in file "main.c"
  5487 ;; Parameters:    Size  Location     Type
  5488 ;;  num             1    wreg     unsigned char 
  5489 ;; Auto vars:     Size  Location     Type
  5490 ;;  num             1    2[BANK0 ] unsigned char 
  5491 ;; Return value:  Size  Location     Type
  5492 ;;                  1    wreg      void 
  5493 ;; Registers used:
  5494 ;;		wreg, fsr0l, fsr0h, status,2, status,0
  5495 ;; Tracked objects:
  5496 ;;		On entry : 0/0
  5497 ;;		On exit  : 0/0
  5498 ;;		Unchanged: 0/0
  5499 ;; Data sizes:     COMMON   BANK0   BANK1   BANK2   BANK3   BANK4   BANK5   BANK6   BANK7   BANK8   BANK9  BANK10  BANK1
      +1  BANK12
  5500 ;;      Params:         0       0       0       0       0       0       0       0       0       0       0       0       
      +0       0
  5501 ;;      Locals:         0       1       0       0       0       0       0       0       0       0       0       0       
      +0       0
  5502 ;;      Temps:          0       2       0       0       0       0       0       0       0       0       0       0       
      +0       0
  5503 ;;      Totals:         0       3       0       0       0       0       0       0       0       0       0       0       
      +0       0
  5504 ;;Total ram usage:        3 bytes
  5505 ;; Hardware stack levels used:    1
  5506 ;; Hardware stack levels required when called:    4
  5507 ;; This function calls:
  5508 ;;		Nothing
  5509 ;; This function is called by:
  5510 ;;		_main
  5511 ;; This function uses a non-reentrant model
  5512 ;;
  5513                           
  5514                           
  5515                           ;psect for function _LCD_Digit1Num
  5516  04B0                     _LCD_Digit1Num:
  5517                           
  5518                           ;incstack = 0
  5519                           ; Regs used in _LCD_Digit1Num: [wreg-fsr0h+status,2+status,0]
  5520                           ;LCD_Digit1Num@num stored from wreg
  5521  04B0  0020               	movlb	0	; select bank0
  5522  04B1  00CE               	movwf	LCD_Digit1Num@num
  5523  04B2                     l3235:
  5524                           
  5525                           ;main.c: 207: void LCD_Digit1Num (unsigned char num);main.c: 208: {;main.c: 209:     swi
      +                          tch (num)
  5526  04B2  2D4C               	goto	l3237
  5527  04B3                     l1052:	
  5528                           ;main.c: 210:     {;main.c: 211:         case 0: LCDDATA9bits.SEG4COM3 = 1; LCDDATA9bits
      +                          .SEG7COM3 = 1; LCDDATA3bits.SEG7COM1 = 1; LCDDATA0bits.SEG7COM0 = 1; LCDDATA3bits.SEG4CO
      +                          M1 = 1; LCDDATA6bits.SEG4COM2 = 1; LCDDATA6bits.SEG7COM2 = 0; break;
  5529                           
  5530  04B3  002F               	movlb	15	; select bank15
  5531  04B4  1629               	bsf	41,4	;volatile
  5532  04B5  17A9               	bsf	41,7	;volatile
  5533  04B6  17A3               	bsf	35,7	;volatile
  5534  04B7  17A0               	bsf	32,7	;volatile
  5535  04B8  1623               	bsf	35,4	;volatile
  5536  04B9  1626               	bsf	38,4	;volatile
  5537  04BA  13A6               	bcf	38,7	;volatile
  5538  04BB  2D86               	goto	l1070
  5539  04BC                     l1054:	
  5540                           ;main.c: 212:         case 1: LCDDATA9bits.SEG4COM3 = 0; LCDDATA9bits.SEG7COM3 = 1; LCDD
      +                          ATA3bits.SEG7COM1 = 1; LCDDATA0bits.SEG7COM0 = 0; LCDDATA3bits.SEG4COM1 = 0; LCDDATA6bit
      +                          s.SEG4COM2 = 0; LCDDATA6bits.SEG7COM2 = 0; break;
  5541                           
  5542  04BC  002F               	movlb	15	; select bank15
  5543  04BD  1229               	bcf	41,4	;volatile
  5544  04BE  17A9               	bsf	41,7	;volatile
  5545  04BF  17A3               	bsf	35,7	;volatile
  5546  04C0  13A0               	bcf	32,7	;volatile
  5547  04C1  1223               	bcf	35,4	;volatile
  5548  04C2  1226               	bcf	38,4	;volatile
  5549  04C3  13A6               	bcf	38,7	;volatile
  5550  04C4  2D86               	goto	l1070
  5551  04C5                     l1055:	
  5552                           ;main.c: 213:         case 2: LCDDATA9bits.SEG4COM3 = 1; LCDDATA9bits.SEG7COM3 = 1; LCDD
      +                          ATA3bits.SEG7COM1 = 0; LCDDATA0bits.SEG7COM0 = 1; LCDDATA3bits.SEG4COM1 = 1; LCDDATA6bit
      +                          s.SEG4COM2 = 0; LCDDATA6bits.SEG7COM2 = 1; break;
  5553                           
  5554  04C5  002F               	movlb	15	; select bank15
  5555  04C6  1629               	bsf	41,4	;volatile
  5556  04C7  17A9               	bsf	41,7	;volatile
  5557  04C8  13A3               	bcf	35,7	;volatile
  5558  04C9  17A0               	bsf	32,7	;volatile
  5559  04CA  1623               	bsf	35,4	;volatile
  5560  04CB  1226               	bcf	38,4	;volatile
  5561  04CC  17A6               	bsf	38,7	;volatile
  5562  04CD  2D86               	goto	l1070
  5563  04CE                     l1056:	
  5564                           ;main.c: 214:         case 3: LCDDATA9bits.SEG4COM3 = 1; LCDDATA9bits.SEG7COM3 = 1; LCDD
      +                          ATA3bits.SEG7COM1 = 1; LCDDATA0bits.SEG7COM0 = 1; LCDDATA3bits.SEG4COM1 = 0; LCDDATA6bit
      +                          s.SEG4COM2 = 0; LCDDATA6bits.SEG7COM2 = 1; break;
  5565                           
  5566  04CE  002F               	movlb	15	; select bank15
  5567  04CF  1629               	bsf	41,4	;volatile
  5568  04D0  17A9               	bsf	41,7	;volatile
  5569  04D1  17A3               	bsf	35,7	;volatile
  5570  04D2  17A0               	bsf	32,7	;volatile
  5571  04D3  1223               	bcf	35,4	;volatile
  5572  04D4  1226               	bcf	38,4	;volatile
  5573  04D5  17A6               	bsf	38,7	;volatile
  5574  04D6  2D86               	goto	l1070
  5575  04D7                     l1057:	
  5576                           ;main.c: 215:         case 4: LCDDATA9bits.SEG4COM3 = 0; LCDDATA9bits.SEG7COM3 = 1; LCDD
      +                          ATA3bits.SEG7COM1 = 1; LCDDATA0bits.SEG7COM0 = 0; LCDDATA3bits.SEG4COM1 = 0; LCDDATA6bit
      +                          s.SEG4COM2 = 1; LCDDATA6bits.SEG7COM2 = 1; break;
  5577                           
  5578  04D7  002F               	movlb	15	; select bank15
  5579  04D8  1229               	bcf	41,4	;volatile
  5580  04D9  17A9               	bsf	41,7	;volatile
  5581  04DA  17A3               	bsf	35,7	;volatile
  5582  04DB  13A0               	bcf	32,7	;volatile
  5583  04DC  1223               	bcf	35,4	;volatile
  5584  04DD  1626               	bsf	38,4	;volatile
  5585  04DE  17A6               	bsf	38,7	;volatile
  5586  04DF  2D86               	goto	l1070
  5587  04E0                     l1058:	
  5588                           ;main.c: 216:         case 5: LCDDATA9bits.SEG4COM3 = 1; LCDDATA9bits.SEG7COM3 = 0; LCDD
      +                          ATA3bits.SEG7COM1 = 1; LCDDATA0bits.SEG7COM0 = 1; LCDDATA3bits.SEG4COM1 = 0; LCDDATA6bit
      +                          s.SEG4COM2 = 1; LCDDATA6bits.SEG7COM2 = 1; break;
  5589                           
  5590  04E0  002F               	movlb	15	; select bank15
  5591  04E1  1629               	bsf	41,4	;volatile
  5592  04E2  13A9               	bcf	41,7	;volatile
  5593  04E3  17A3               	bsf	35,7	;volatile
  5594  04E4  17A0               	bsf	32,7	;volatile
  5595  04E5  1223               	bcf	35,4	;volatile
  5596  04E6  1626               	bsf	38,4	;volatile
  5597  04E7  17A6               	bsf	38,7	;volatile
  5598  04E8  2D86               	goto	l1070
  5599  04E9                     l1059:	
  5600                           ;main.c: 217:         case 6: LCDDATA9bits.SEG4COM3 = 1; LCDDATA9bits.SEG7COM3 = 0; LCDD
      +                          ATA3bits.SEG7COM1 = 1; LCDDATA0bits.SEG7COM0 = 1; LCDDATA3bits.SEG4COM1 = 1; LCDDATA6bit
      +                          s.SEG4COM2 = 1; LCDDATA6bits.SEG7COM2 = 1; break;
  5601                           
  5602  04E9  002F               	movlb	15	; select bank15
  5603  04EA  1629               	bsf	41,4	;volatile
  5604  04EB  13A9               	bcf	41,7	;volatile
  5605  04EC  17A3               	bsf	35,7	;volatile
  5606  04ED  17A0               	bsf	32,7	;volatile
  5607  04EE  1623               	bsf	35,4	;volatile
  5608  04EF  1626               	bsf	38,4	;volatile
  5609  04F0  17A6               	bsf	38,7	;volatile
  5610  04F1  2D86               	goto	l1070
  5611  04F2                     l1060:	
  5612                           ;main.c: 218:         case 7: LCDDATA9bits.SEG4COM3 = 1; LCDDATA9bits.SEG7COM3 = 1; LCDD
      +                          ATA3bits.SEG7COM1 = 1; LCDDATA0bits.SEG7COM0 = 0; LCDDATA3bits.SEG4COM1 = 0; LCDDATA6bit
      +                          s.SEG4COM2 = 0; LCDDATA6bits.SEG7COM2 = 0; break;
  5613                           
  5614  04F2  002F               	movlb	15	; select bank15
  5615  04F3  1629               	bsf	41,4	;volatile
  5616  04F4  17A9               	bsf	41,7	;volatile
  5617  04F5  17A3               	bsf	35,7	;volatile
  5618  04F6  13A0               	bcf	32,7	;volatile
  5619  04F7  1223               	bcf	35,4	;volatile
  5620  04F8  1226               	bcf	38,4	;volatile
  5621  04F9  13A6               	bcf	38,7	;volatile
  5622  04FA  2D86               	goto	l1070
  5623  04FB                     l1061:	
  5624                           ;main.c: 219:         case 8: LCDDATA9bits.SEG4COM3 = 1; LCDDATA9bits.SEG7COM3 = 1; LCDD
      +                          ATA3bits.SEG7COM1 = 1; LCDDATA0bits.SEG7COM0 = 1; LCDDATA3bits.SEG4COM1 = 1; LCDDATA6bit
      +                          s.SEG4COM2 = 1; LCDDATA6bits.SEG7COM2 = 1; break;
  5625                           
  5626  04FB  002F               	movlb	15	; select bank15
  5627  04FC  1629               	bsf	41,4	;volatile
  5628  04FD  17A9               	bsf	41,7	;volatile
  5629  04FE  17A3               	bsf	35,7	;volatile
  5630  04FF  17A0               	bsf	32,7	;volatile
  5631  0500  1623               	bsf	35,4	;volatile
  5632  0501  1626               	bsf	38,4	;volatile
  5633  0502  17A6               	bsf	38,7	;volatile
  5634  0503  2D86               	goto	l1070
  5635  0504                     l1062:	
  5636                           ;main.c: 220:         case 9: LCDDATA9bits.SEG4COM3 = 1; LCDDATA9bits.SEG7COM3 = 1; LCDD
      +                          ATA3bits.SEG7COM1 = 1; LCDDATA0bits.SEG7COM0 = 1; LCDDATA3bits.SEG4COM1 = 0; LCDDATA6bit
      +                          s.SEG4COM2 = 1; LCDDATA6bits.SEG7COM2 = 1; break;
  5637                           
  5638  0504  002F               	movlb	15	; select bank15
  5639  0505  1629               	bsf	41,4	;volatile
  5640  0506  17A9               	bsf	41,7	;volatile
  5641  0507  17A3               	bsf	35,7	;volatile
  5642  0508  17A0               	bsf	32,7	;volatile
  5643  0509  1223               	bcf	35,4	;volatile
  5644  050A  1626               	bsf	38,4	;volatile
  5645  050B  17A6               	bsf	38,7	;volatile
  5646  050C  2D86               	goto	l1070
  5647  050D                     l1063:	
  5648                           ;main.c: 221:         case 0x0A: LCDDATA9bits.SEG4COM3 = 1; LCDDATA9bits.SEG7COM3 = 1; L
      +                          CDDATA3bits.SEG7COM1 = 1; LCDDATA0bits.SEG7COM0 = 0; LCDDATA3bits.SEG4COM1 = 1; LCDDATA6
      +                          bits.SEG4COM2 = 1; LCDDATA6bits.SEG7COM2 = 1; break;
  5649                           
  5650  050D  002F               	movlb	15	; select bank15
  5651  050E  1629               	bsf	41,4	;volatile
  5652  050F  17A9               	bsf	41,7	;volatile
  5653  0510  17A3               	bsf	35,7	;volatile
  5654  0511  13A0               	bcf	32,7	;volatile
  5655  0512  1623               	bsf	35,4	;volatile
  5656  0513  1626               	bsf	38,4	;volatile
  5657  0514  17A6               	bsf	38,7	;volatile
  5658  0515  2D86               	goto	l1070
  5659  0516                     l1064:	
  5660                           ;main.c: 222:         case 0x0B: LCDDATA9bits.SEG4COM3 = 0; LCDDATA9bits.SEG7COM3 = 0; L
      +                          CDDATA3bits.SEG7COM1 = 1; LCDDATA0bits.SEG7COM0 = 1; LCDDATA3bits.SEG4COM1 = 1; LCDDATA6
      +                          bits.SEG4COM2 = 1; LCDDATA6bits.SEG7COM2 = 1; break;
  5661                           
  5662  0516  002F               	movlb	15	; select bank15
  5663  0517  1229               	bcf	41,4	;volatile
  5664  0518  13A9               	bcf	41,7	;volatile
  5665  0519  17A3               	bsf	35,7	;volatile
  5666  051A  17A0               	bsf	32,7	;volatile
  5667  051B  1623               	bsf	35,4	;volatile
  5668  051C  1626               	bsf	38,4	;volatile
  5669  051D  17A6               	bsf	38,7	;volatile
  5670  051E  2D86               	goto	l1070
  5671  051F                     l1065:	
  5672                           ;main.c: 223:         case 0x0C: LCDDATA9bits.SEG4COM3 = 1; LCDDATA9bits.SEG7COM3 = 0; L
      +                          CDDATA3bits.SEG7COM1 = 0; LCDDATA0bits.SEG7COM0 = 1; LCDDATA3bits.SEG4COM1 = 1; LCDDATA6
      +                          bits.SEG4COM2 = 1; LCDDATA6bits.SEG7COM2 = 0; break;
  5673                           
  5674  051F  002F               	movlb	15	; select bank15
  5675  0520  1629               	bsf	41,4	;volatile
  5676  0521  13A9               	bcf	41,7	;volatile
  5677  0522  13A3               	bcf	35,7	;volatile
  5678  0523  17A0               	bsf	32,7	;volatile
  5679  0524  1623               	bsf	35,4	;volatile
  5680  0525  1626               	bsf	38,4	;volatile
  5681  0526  13A6               	bcf	38,7	;volatile
  5682  0527  2D86               	goto	l1070
  5683  0528                     l1066:	
  5684                           ;main.c: 224:         case 0x0D: LCDDATA9bits.SEG4COM3 = 0; LCDDATA9bits.SEG7COM3 = 1; L
      +                          CDDATA3bits.SEG7COM1 = 1; LCDDATA0bits.SEG7COM0 = 1; LCDDATA3bits.SEG4COM1 = 1; LCDDATA6
      +                          bits.SEG4COM2 = 0; LCDDATA6bits.SEG7COM2 = 1; break;
  5685                           
  5686  0528  002F               	movlb	15	; select bank15
  5687  0529  1229               	bcf	41,4	;volatile
  5688  052A  17A9               	bsf	41,7	;volatile
  5689  052B  17A3               	bsf	35,7	;volatile
  5690  052C  17A0               	bsf	32,7	;volatile
  5691  052D  1623               	bsf	35,4	;volatile
  5692  052E  1226               	bcf	38,4	;volatile
  5693  052F  17A6               	bsf	38,7	;volatile
  5694  0530  2D86               	goto	l1070
  5695  0531                     l1067:	
  5696                           ;main.c: 225:         case 0x0E: LCDDATA9bits.SEG4COM3 = 1; LCDDATA9bits.SEG7COM3 = 1; L
      +                          CDDATA3bits.SEG7COM1 = 0; LCDDATA0bits.SEG7COM0 = 0; LCDDATA3bits.SEG4COM1 = 1; LCDDATA6
      +                          bits.SEG4COM2 = 1; LCDDATA6bits.SEG7COM2 = 1; break;
  5697                           
  5698  0531  002F               	movlb	15	; select bank15
  5699  0532  1629               	bsf	41,4	;volatile
  5700  0533  17A9               	bsf	41,7	;volatile
  5701  0534  13A3               	bcf	35,7	;volatile
  5702  0535  13A0               	bcf	32,7	;volatile
  5703  0536  1623               	bsf	35,4	;volatile
  5704  0537  1626               	bsf	38,4	;volatile
  5705  0538  17A6               	bsf	38,7	;volatile
  5706  0539  2D86               	goto	l1070
  5707  053A                     l1068:	
  5708                           ;main.c: 226:         case 0x0F: LCDDATA9bits.SEG4COM3 = 1; LCDDATA9bits.SEG7COM3 = 0; L
      +                          CDDATA3bits.SEG7COM1 = 0; LCDDATA0bits.SEG7COM0 = 0; LCDDATA3bits.SEG4COM1 = 1; LCDDATA6
      +                          bits.SEG4COM2 = 1; LCDDATA6bits.SEG7COM2 = 1; break;
  5709                           
  5710  053A  002F               	movlb	15	; select bank15
  5711  053B  1629               	bsf	41,4	;volatile
  5712  053C  13A9               	bcf	41,7	;volatile
  5713  053D  13A3               	bcf	35,7	;volatile
  5714  053E  13A0               	bcf	32,7	;volatile
  5715  053F  1623               	bsf	35,4	;volatile
  5716  0540  1626               	bsf	38,4	;volatile
  5717  0541  17A6               	bsf	38,7	;volatile
  5718  0542  2D86               	goto	l1070
  5719  0543                     l1069:	
  5720                           ;main.c: 228:         default: LCDDATA9bits.SEG4COM3 = 0; LCDDATA9bits.SEG7COM3 = 0; LCD
      +                          DATA3bits.SEG7COM1 = 0; LCDDATA0bits.SEG7COM0 = 0; LCDDATA3bits.SEG4COM1 = 0; LCDDATA6bi
      +                          ts.SEG4COM2 = 0; LCDDATA6bits.SEG7COM2 = 0;
  5721                           
  5722  0543  002F               	movlb	15	; select bank15
  5723  0544  1229               	bcf	41,4	;volatile
  5724  0545  13A9               	bcf	41,7	;volatile
  5725  0546  13A3               	bcf	35,7	;volatile
  5726  0547  13A0               	bcf	32,7	;volatile
  5727  0548  1223               	bcf	35,4	;volatile
  5728  0549  1226               	bcf	38,4	;volatile
  5729  054A  13A6               	bcf	38,7	;volatile
  5730                           
  5731                           ;main.c: 229:     }
  5732  054B  2D86               	goto	l1070
  5733  054C                     l3237:
  5734  054C  084E               	movf	LCD_Digit1Num@num,w
  5735  054D  00CC               	movwf	??_LCD_Digit1Num
  5736  054E  01CD               	clrf	??_LCD_Digit1Num+1
  5737                           
  5738                           ; Switch on 2 bytes has been partitioned into a top level switch of size 1, and 1 sub-sw
      +                          itches
  5739                           ; Switch size 1, requested type "simple"
  5740                           ; Number of cases is 1, Range of values is 0 to 0
  5741                           ; switch strategies available:
  5742                           ; Name         Instructions Cycles
  5743                           ; simple_byte            4     3 (average)
  5744                           ; direct_byte            8     6 (fixed)
  5745                           ; jumptable            260     6 (fixed)
  5746                           ;	Chosen strategy is simple_byte
  5747  054F  084D               	movf	??_LCD_Digit1Num+1,w
  5748  0550  3A00               	xorlw	0	; case 0
  5749  0551  1903               	skipnz
  5750  0552  2D54               	goto	l3455
  5751  0553  2D43               	goto	l1069
  5752  0554                     l3455:
  5753                           
  5754                           ; Switch size 1, requested type "simple"
  5755                           ; Number of cases is 16, Range of values is 0 to 15
  5756                           ; switch strategies available:
  5757                           ; Name         Instructions Cycles
  5758                           ; direct_byte           38     6 (fixed)
  5759                           ; simple_byte           49    25 (average)
  5760                           ; jumptable            260     6 (fixed)
  5761                           ;	Chosen strategy is simple_byte
  5762  0554  084C               	movf	??_LCD_Digit1Num,w
  5763  0555  3A00               	xorlw	0	; case 0
  5764  0556  1903               	skipnz
  5765  0557  2CB3               	goto	l1052
  5766  0558  3A01               	xorlw	1	; case 1
  5767  0559  1903               	skipnz
  5768  055A  2CBC               	goto	l1054
  5769  055B  3A03               	xorlw	3	; case 2
  5770  055C  1903               	skipnz
  5771  055D  2CC5               	goto	l1055
  5772  055E  3A01               	xorlw	1	; case 3
  5773  055F  1903               	skipnz
  5774  0560  2CCE               	goto	l1056
  5775  0561  3A07               	xorlw	7	; case 4
  5776  0562  1903               	skipnz
  5777  0563  2CD7               	goto	l1057
  5778  0564  3A01               	xorlw	1	; case 5
  5779  0565  1903               	skipnz
  5780  0566  2CE0               	goto	l1058
  5781  0567  3A03               	xorlw	3	; case 6
  5782  0568  1903               	skipnz
  5783  0569  2CE9               	goto	l1059
  5784  056A  3A01               	xorlw	1	; case 7
  5785  056B  1903               	skipnz
  5786  056C  2CF2               	goto	l1060
  5787  056D  3A0F               	xorlw	15	; case 8
  5788  056E  1903               	skipnz
  5789  056F  2CFB               	goto	l1061
  5790  0570  3A01               	xorlw	1	; case 9
  5791  0571  1903               	skipnz
  5792  0572  2D04               	goto	l1062
  5793  0573  3A03               	xorlw	3	; case 10
  5794  0574  1903               	skipnz
  5795  0575  2D0D               	goto	l1063
  5796  0576  3A01               	xorlw	1	; case 11
  5797  0577  1903               	skipnz
  5798  0578  2D16               	goto	l1064
  5799  0579  3A07               	xorlw	7	; case 12
  5800  057A  1903               	skipnz
  5801  057B  2D1F               	goto	l1065
  5802  057C  3A01               	xorlw	1	; case 13
  5803  057D  1903               	skipnz
  5804  057E  2D28               	goto	l1066
  5805  057F  3A03               	xorlw	3	; case 14
  5806  0580  1903               	skipnz
  5807  0581  2D31               	goto	l1067
  5808  0582  3A01               	xorlw	1	; case 15
  5809  0583  1903               	skipnz
  5810  0584  2D3A               	goto	l1068
  5811  0585  2D43               	goto	l1069
  5812  0586                     l1070:
  5813  0586  0008               	return
  5814  0587                     __end_of_LCD_Digit1Num:
  5815                           
  5816                           	psect	intentry
  5817  0004                     __pintentry:	
  5818 ;; *************** function _INTERRUPT_InterruptManager *****************
  5819 ;; Defined at:
  5820 ;;		line 52 in file "mcc_generated_files/interrupt_manager.c"
  5821 ;; Parameters:    Size  Location     Type
  5822 ;;		None
  5823 ;; Auto vars:     Size  Location     Type
  5824 ;;		None
  5825 ;; Return value:  Size  Location     Type
  5826 ;;                  1    wreg      void 
  5827 ;; Registers used:
  5828 ;;		wreg, status,2, status,0, pclath, cstack
  5829 ;; Tracked objects:
  5830 ;;		On entry : 0/0
  5831 ;;		On exit  : 0/0
  5832 ;;		Unchanged: 0/0
  5833 ;; Data sizes:     COMMON   BANK0   BANK1   BANK2   BANK3   BANK4   BANK5   BANK6   BANK7   BANK8   BANK9  BANK10  BANK1
      +1  BANK12
  5834 ;;      Params:         0       0       0       0       0       0       0       0       0       0       0       0       
      +0       0
  5835 ;;      Locals:         0       0       0       0       0       0       0       0       0       0       0       0       
      +0       0
  5836 ;;      Temps:          0       0       0       0       0       0       0       0       0       0       0       0       
      +0       0
  5837 ;;      Totals:         0       0       0       0       0       0       0       0       0       0       0       0       
      +0       0
  5838 ;;Total ram usage:        0 bytes
  5839 ;; Hardware stack levels used:    1
  5840 ;; Hardware stack levels required when called:    3
  5841 ;; This function calls:
  5842 ;;		_CCP4_CaptureISR
  5843 ;; This function is called by:
  5844 ;;		Interrupt level 1
  5845 ;; This function uses a non-reentrant model
  5846 ;;
  5847                           
  5848  0004                     _INTERRUPT_InterruptManager:
  5849                           
  5850                           ;incstack = 0
  5851  0004  147E               	bsf	int$flags,0	;set compiler interrupt flag (level 1)
  5852                           
  5853                           ; Regs used in _INTERRUPT_InterruptManager: [wreg+status,2+status,0+pclath+cstack]
  5854  0005  3180               	pagesel	$
  5855  0006                     i1l3289:
  5856                           
  5857                           ;mcc_generated_files/interrupt_manager.c: 55:     if(INTCONbits.PEIE == 1)
  5858  0006  1F0B               	btfss	11,6	;volatile
  5859  0007  2809               	goto	u107_21
  5860  0008  280A               	goto	u107_20
  5861  0009                     u107_21:
  5862  0009  2817               	goto	i1l961
  5863  000A                     u107_20:
  5864  000A                     i1l3291:
  5865                           
  5866                           ;mcc_generated_files/interrupt_manager.c: 56:     {;mcc_generated_files/interrupt_manage
      +                          r.c: 57:         if(PIE3bits.CCP4IE == 1 && PIR3bits.CCP4IF == 1)
  5867  000A  0021               	movlb	1	; select bank1
  5868  000B  1E93               	btfss	19,5	;volatile
  5869  000C  280E               	goto	u108_21
  5870  000D  280F               	goto	u108_20
  5871  000E                     u108_21:
  5872  000E  2817               	goto	i1l961
  5873  000F                     u108_20:
  5874  000F                     i1l3293:
  5875  000F  0020               	movlb	0	; select bank0
  5876  0010  1E93               	btfss	19,5	;volatile
  5877  0011  2813               	goto	u109_21
  5878  0012  2814               	goto	u109_20
  5879  0013                     u109_21:
  5880  0013  2817               	goto	i1l961
  5881  0014                     u109_20:
  5882  0014                     i1l3295:
  5883                           
  5884                           ;mcc_generated_files/interrupt_manager.c: 58:         {;mcc_generated_files/interrupt_ma
      +                          nager.c: 59:             CCP4_CaptureISR();
  5885  0014  3186  26B2  3180   	fcall	_CCP4_CaptureISR
  5886  0017                     i1l961:	
  5887                           ;mcc_generated_files/interrupt_manager.c: 60:         }
  5888                           
  5889  0017  107E               	bcf	int$flags,0	;clear compiler interrupt flag (level 1)
  5890  0018  0009               	retfie
  5891  0019                     __end_of_INTERRUPT_InterruptManager:
  5892                           
  5893                           	psect	text23
  5894  06B2                     __ptext23:	
  5895 ;; *************** function _CCP4_CaptureISR *****************
  5896 ;; Defined at:
  5897 ;;		line 89 in file "mcc_generated_files/ccp4.c"
  5898 ;; Parameters:    Size  Location     Type
  5899 ;;		None
  5900 ;; Auto vars:     Size  Location     Type
  5901 ;;  module          2    9[COMMON] struct CCPR4Reg_tag
  5902 ;; Return value:  Size  Location     Type
  5903 ;;                  1    wreg      void 
  5904 ;; Registers used:
  5905 ;;		wreg, status,2, status,0, pclath, cstack
  5906 ;; Tracked objects:
  5907 ;;		On entry : 0/0
  5908 ;;		On exit  : 0/0
  5909 ;;		Unchanged: 0/0
  5910 ;; Data sizes:     COMMON   BANK0   BANK1   BANK2   BANK3   BANK4   BANK5   BANK6   BANK7   BANK8   BANK9  BANK10  BANK1
      +1  BANK12
  5911 ;;      Params:         0       0       0       0       0       0       0       0       0       0       0       0       
      +0       0
  5912 ;;      Locals:         2       0       0       0       0       0       0       0       0       0       0       0       
      +0       0
  5913 ;;      Temps:          1       0       0       0       0       0       0       0       0       0       0       0       
      +0       0
  5914 ;;      Totals:         3       0       0       0       0       0       0       0       0       0       0       0       
      +0       0
  5915 ;;Total ram usage:        3 bytes
  5916 ;; Hardware stack levels used:    1
  5917 ;; Hardware stack levels required when called:    2
  5918 ;; This function calls:
  5919 ;;		Absolute function
  5920 ;;		_CCP4_CallBack@main$F1838
  5921 ;;		_CCP4_DefaultCallBack
  5922 ;; This function is called by:
  5923 ;;		_INTERRUPT_InterruptManager
  5924 ;; This function uses a non-reentrant model
  5925 ;;
  5926                           
  5927                           
  5928                           ;psect for function _CCP4_CaptureISR
  5929  06B2                     _CCP4_CaptureISR:
  5930  06B2                     i1l3223:	
  5931                           ;incstack = 0
  5932                           ; Regs used in _CCP4_CaptureISR: [wreg+status,2+status,0+pclath+cstack]
  5933                           
  5934                           
  5935                           ;mcc_generated_files/ccp4.c: 91:     CCP4_PERIOD_REG_T module;;mcc_generated_files/ccp4.
      +                          c: 94:     PIR3bits.CCP4IF = 0;
  5936  06B2  0020               	movlb	0	; select bank0
  5937  06B3  1293               	bcf	19,5	;volatile
  5938  06B4                     i1l3225:
  5939                           
  5940                           ;mcc_generated_files/ccp4.c: 97:     module.ccpr4l = CCPR4L;
  5941  06B4  0026               	movlb	6	; select bank6
  5942  06B5  0818               	movf	24,w	;volatile
  5943  06B6  00F8               	movwf	??_CCP4_CaptureISR
  5944  06B7  0878               	movf	??_CCP4_CaptureISR,w
  5945  06B8  00F9               	movwf	CCP4_CaptureISR@module
  5946                           
  5947                           ;mcc_generated_files/ccp4.c: 98:     module.ccpr4h = CCPR4H;
  5948  06B9  0819               	movf	25,w	;volatile
  5949  06BA  00F8               	movwf	??_CCP4_CaptureISR
  5950  06BB  0878               	movf	??_CCP4_CaptureISR,w
  5951  06BC  00FA               	movwf	CCP4_CaptureISR@module+1
  5952  06BD                     i1l3227:
  5953                           
  5954                           ;mcc_generated_files/ccp4.c: 101:     CCP4_CallBack(module.ccpr4_16Bit);
  5955  06BD  087A               	movf	CCP4_CaptureISR@module+1,w
  5956  06BE  00F3               	movwf	CCP4_CallBack@main$F1838@capturedValue+1
  5957  06BF  0879               	movf	CCP4_CaptureISR@module,w
  5958  06C0  00F2               	movwf	CCP4_CallBack@main$F1838@capturedValue
  5959  06C1  0020               	movlb	0	; select bank0
  5960  06C2  083E               	movf	_CCP4_CallBack+1,w
  5961  06C3  008A               	movwf	10
  5962  06C4  083D               	movf	_CCP4_CallBack,w
  5963  06C5  000A               	callw
  5964  06C6  3186               	pagesel	$
  5965  06C7                     i1l941:
  5966  06C7  0008               	return
  5967  06C8                     __end_of_CCP4_CaptureISR:
  5968                           
  5969                           	psect	text24
  5970  0206                     __ptext24:	
  5971 ;; *************** function _CCP4_CallBack@main$F1838 *****************
  5972 ;; Defined at:
  5973 ;;		line 140 in file "main.c"
  5974 ;; Parameters:    Size  Location     Type
  5975 ;;  capturedValu    2    2[COMMON] unsigned short 
  5976 ;; Auto vars:     Size  Location     Type
  5977 ;;		None
  5978 ;; Return value:  Size  Location     Type
  5979 ;;                  1    wreg      void 
  5980 ;; Registers used:
  5981 ;;		wreg, status,2, status,0, pclath, cstack
  5982 ;; Tracked objects:
  5983 ;;		On entry : 0/0
  5984 ;;		On exit  : 0/0
  5985 ;;		Unchanged: 0/0
  5986 ;; Data sizes:     COMMON   BANK0   BANK1   BANK2   BANK3   BANK4   BANK5   BANK6   BANK7   BANK8   BANK9  BANK10  BANK1
      +1  BANK12
  5987 ;;      Params:         2       0       0       0       0       0       0       0       0       0       0       0       
      +0       0
  5988 ;;      Locals:         0       0       0       0       0       0       0       0       0       0       0       0       
      +0       0
  5989 ;;      Temps:          4       0       0       0       0       0       0       0       0       0       0       0       
      +0       0
  5990 ;;      Totals:         6       0       0       0       0       0       0       0       0       0       0       0       
      +0       0
  5991 ;;Total ram usage:        6 bytes
  5992 ;; Hardware stack levels used:    1
  5993 ;; Hardware stack levels required when called:    1
  5994 ;; This function calls:
  5995 ;;		_TMR1_WriteTimer
  5996 ;; This function is called by:
  5997 ;;		_main
  5998 ;;		_CCP4_CaptureISR
  5999 ;; This function uses a non-reentrant model
  6000 ;;
  6001                           
  6002                           
  6003                           ;psect for function _CCP4_CallBack@main$F1838
  6004  0206                     _CCP4_CallBack@main$F1838:
  6005  0206                     i1l3141:	
  6006                           ;incstack = 0
  6007                           ; Regs used in _CCP4_CallBack@main$F1838: [wreg+status,2+status,0+pclath+cstack]
  6008                           
  6009                           
  6010                           ;main.c: 140: static void CCP4_CallBack(uint16_t capturedValue);main.c: 141: {;main.c: 1
      +                          42:     static uint8_t bit_count;;main.c: 144:     TMR1_WriteTimer(0x0000);
  6011  0206  3000               	movlw	0
  6012  0207  00F0               	movwf	TMR1_WriteTimer@timerVal
  6013  0208  00F1               	movwf	TMR1_WriteTimer@timerVal+1
  6014  0209  3186  26DA  3182   	fcall	_TMR1_WriteTimer
  6015  020C                     i1l3143:
  6016                           
  6017                           ;main.c: 147:     if((capturedValue > 13400) && (capturedValue < 13600)){
  6018  020C  3034               	movlw	52
  6019  020D  0273               	subwf	CCP4_CallBack@main$F1838@capturedValue+1,w
  6020  020E  3059               	movlw	89
  6021  020F  1903               	skipnz
  6022  0210  0272               	subwf	CCP4_CallBack@main$F1838@capturedValue,w
  6023  0211  1C03               	skipc
  6024  0212  2A14               	goto	u80_21
  6025  0213  2A15               	goto	u80_20
  6026  0214                     u80_21:
  6027  0214  2A29               	goto	i1l3151
  6028  0215                     u80_20:
  6029  0215                     i1l3145:
  6030  0215  3035               	movlw	53
  6031  0216  0273               	subwf	CCP4_CallBack@main$F1838@capturedValue+1,w
  6032  0217  3020               	movlw	32
  6033  0218  1903               	skipnz
  6034  0219  0272               	subwf	CCP4_CallBack@main$F1838@capturedValue,w
  6035  021A  1803               	skipnc
  6036  021B  2A1D               	goto	u81_21
  6037  021C  2A1E               	goto	u81_20
  6038  021D                     u81_21:
  6039  021D  2A29               	goto	i1l3151
  6040  021E                     u81_20:
  6041  021E                     i1l3147:
  6042                           
  6043                           ;main.c: 148:         bit_count = 0;
  6044  021E  01FB               	clrf	CCP4_CallBack@main$F1838@bit_count
  6045                           
  6046                           ;main.c: 149:         ir_address = ir_address_complement = ir_command = ir_command_compl
      +                          ement = 0;
  6047  021F  01FC               	clrf	_ir_command_complement	;volatile
  6048  0220  0020               	movlb	0	; select bank0
  6049  0221  01C8               	clrf	_ir_command	;volatile
  6050  0222  01C9               	clrf	_ir_address_complement	;volatile
  6051  0223  01CA               	clrf	_ir_address	;volatile
  6052  0224                     i1l3149:
  6053                           
  6054                           ;main.c: 150:         ir_flag = IR_BUSY;
  6055  0224  3001               	movlw	1
  6056  0225  00F4               	movwf	??_CCP4_CallBack@main$F1842
  6057  0226  0874               	movf	??_CCP4_CallBack@main$F1842,w
  6058  0227  00C7               	movwf	_ir_flag	;volatile
  6059                           
  6060                           ;main.c: 151:     } else if((capturedValue > 11150) && (capturedValue < 11350)){
  6061  0228  2B01               	goto	i1l1048
  6062  0229                     i1l3151:
  6063  0229  302B               	movlw	43
  6064  022A  0273               	subwf	CCP4_CallBack@main$F1838@capturedValue+1,w
  6065  022B  308F               	movlw	143
  6066  022C  1903               	skipnz
  6067  022D  0272               	subwf	CCP4_CallBack@main$F1838@capturedValue,w
  6068  022E  1C03               	skipc
  6069  022F  2A31               	goto	u82_21
  6070  0230  2A32               	goto	u82_20
  6071  0231                     u82_21:
  6072  0231  2A41               	goto	i1l3157
  6073  0232                     u82_20:
  6074  0232                     i1l3153:
  6075  0232  302C               	movlw	44
  6076  0233  0273               	subwf	CCP4_CallBack@main$F1838@capturedValue+1,w
  6077  0234  3056               	movlw	86
  6078  0235  1903               	skipnz
  6079  0236  0272               	subwf	CCP4_CallBack@main$F1838@capturedValue,w
  6080  0237  1803               	skipnc
  6081  0238  2A3A               	goto	u83_21
  6082  0239  2A3B               	goto	u83_20
  6083  023A                     u83_21:
  6084  023A  2A41               	goto	i1l3157
  6085  023B                     u83_20:
  6086  023B                     i1l3155:
  6087                           
  6088                           ;main.c: 152:         ir_flag = IR_REPEAT;
  6089  023B  3003               	movlw	3
  6090  023C  00F4               	movwf	??_CCP4_CallBack@main$F1842
  6091  023D  0874               	movf	??_CCP4_CallBack@main$F1842,w
  6092  023E  0020               	movlb	0	; select bank0
  6093  023F  00C7               	movwf	_ir_flag	;volatile
  6094                           
  6095                           ;main.c: 153:     } else if((capturedValue > 2150) && (capturedValue < 2350)){
  6096  0240  2B01               	goto	i1l1048
  6097  0241                     i1l3157:
  6098  0241  3008               	movlw	8
  6099  0242  0273               	subwf	CCP4_CallBack@main$F1838@capturedValue+1,w
  6100  0243  3067               	movlw	103
  6101  0244  1903               	skipnz
  6102  0245  0272               	subwf	CCP4_CallBack@main$F1838@capturedValue,w
  6103  0246  1C03               	skipc
  6104  0247  2A49               	goto	u84_21
  6105  0248  2A4A               	goto	u84_20
  6106  0249                     u84_21:
  6107  0249  2AAB               	goto	i1l3193
  6108  024A                     u84_20:
  6109  024A                     i1l3159:
  6110  024A  3009               	movlw	9
  6111  024B  0273               	subwf	CCP4_CallBack@main$F1838@capturedValue+1,w
  6112  024C  302E               	movlw	46
  6113  024D  1903               	skipnz
  6114  024E  0272               	subwf	CCP4_CallBack@main$F1838@capturedValue,w
  6115  024F  1803               	skipnc
  6116  0250  2A52               	goto	u85_21
  6117  0251  2A53               	goto	u85_20
  6118  0252                     u85_21:
  6119  0252  2AAB               	goto	i1l3193
  6120  0253                     u85_20:
  6121  0253                     i1l3161:
  6122                           
  6123                           ;main.c: 154:         if(bit_count < 8){
  6124  0253  3008               	movlw	8
  6125  0254  027B               	subwf	CCP4_CallBack@main$F1838@bit_count,w
  6126  0255  1803               	skipnc
  6127  0256  2A58               	goto	u86_21
  6128  0257  2A59               	goto	u86_20
  6129  0258                     u86_21:
  6130  0258  2A61               	goto	i1l3167
  6131  0259                     u86_20:
  6132  0259                     i1l3163:
  6133                           
  6134                           ;main.c: 156:             ir_address <<= 1;
  6135  0259  1003               	clrc
  6136  025A  0020               	movlb	0	; select bank0
  6137  025B  0DCA               	rlf	_ir_address,f	;volatile
  6138  025C                     i1l3165:
  6139                           
  6140                           ;main.c: 157:             ir_address++;
  6141  025C  3001               	movlw	1
  6142  025D  00F4               	movwf	??_CCP4_CallBack@main$F1842
  6143  025E  0874               	movf	??_CCP4_CallBack@main$F1842,w
  6144  025F  07CA               	addwf	_ir_address,f	;volatile
  6145                           
  6146                           ;main.c: 158:         } else if(bit_count < 16){
  6147  0260  2A8A               	goto	i1l3185
  6148  0261                     i1l3167:
  6149  0261  3010               	movlw	16
  6150  0262  027B               	subwf	CCP4_CallBack@main$F1838@bit_count,w
  6151  0263  1803               	skipnc
  6152  0264  2A66               	goto	u87_21
  6153  0265  2A67               	goto	u87_20
  6154  0266                     u87_21:
  6155  0266  2A6F               	goto	i1l3173
  6156  0267                     u87_20:
  6157  0267                     i1l3169:
  6158                           
  6159                           ;main.c: 160:             ir_address_complement <<= 1;
  6160  0267  1003               	clrc
  6161  0268  0020               	movlb	0	; select bank0
  6162  0269  0DC9               	rlf	_ir_address_complement,f	;volatile
  6163  026A                     i1l3171:
  6164                           
  6165                           ;main.c: 161:             ir_address_complement++;
  6166  026A  3001               	movlw	1
  6167  026B  00F4               	movwf	??_CCP4_CallBack@main$F1842
  6168  026C  0874               	movf	??_CCP4_CallBack@main$F1842,w
  6169  026D  07C9               	addwf	_ir_address_complement,f	;volatile
  6170                           
  6171                           ;main.c: 162:         } else if(bit_count < 24){
  6172  026E  2A8A               	goto	i1l3185
  6173  026F                     i1l3173:
  6174  026F  3018               	movlw	24
  6175  0270  027B               	subwf	CCP4_CallBack@main$F1838@bit_count,w
  6176  0271  1803               	skipnc
  6177  0272  2A74               	goto	u88_21
  6178  0273  2A75               	goto	u88_20
  6179  0274                     u88_21:
  6180  0274  2A7D               	goto	i1l3179
  6181  0275                     u88_20:
  6182  0275                     i1l3175:
  6183                           
  6184                           ;main.c: 164:             ir_command <<= 1;
  6185  0275  1003               	clrc
  6186  0276  0020               	movlb	0	; select bank0
  6187  0277  0DC8               	rlf	_ir_command,f	;volatile
  6188  0278                     i1l3177:
  6189                           
  6190                           ;main.c: 165:             ir_command++;
  6191  0278  3001               	movlw	1
  6192  0279  00F4               	movwf	??_CCP4_CallBack@main$F1842
  6193  027A  0874               	movf	??_CCP4_CallBack@main$F1842,w
  6194  027B  07C8               	addwf	_ir_command,f	;volatile
  6195                           
  6196                           ;main.c: 166:         } else if(bit_count < 32){
  6197  027C  2A8A               	goto	i1l3185
  6198  027D                     i1l3179:
  6199  027D  3020               	movlw	32
  6200  027E  027B               	subwf	CCP4_CallBack@main$F1838@bit_count,w
  6201  027F  1803               	skipnc
  6202  0280  2A82               	goto	u89_21
  6203  0281  2A83               	goto	u89_20
  6204  0282                     u89_21:
  6205  0282  2A8A               	goto	i1l1031
  6206  0283                     u89_20:
  6207  0283                     i1l3181:
  6208                           
  6209                           ;main.c: 168:             ir_command_complement <<= 1;
  6210  0283  1003               	clrc
  6211  0284  0DFC               	rlf	_ir_command_complement,f	;volatile
  6212  0285                     i1l3183:
  6213                           
  6214                           ;main.c: 169:             ir_command_complement++;
  6215  0285  3001               	movlw	1
  6216  0286  00F4               	movwf	??_CCP4_CallBack@main$F1842
  6217  0287  0874               	movf	??_CCP4_CallBack@main$F1842,w
  6218  0288  07FC               	addwf	_ir_command_complement,f	;volatile
  6219  0289  2A8A               	goto	i1l3185
  6220  028A                     i1l1031:
  6221  028A                     i1l3185:
  6222                           
  6223                           ;main.c: 172:         bit_count++;
  6224  028A  3001               	movlw	1
  6225  028B  00F4               	movwf	??_CCP4_CallBack@main$F1842
  6226  028C  0874               	movf	??_CCP4_CallBack@main$F1842,w
  6227  028D  07FB               	addwf	CCP4_CallBack@main$F1838@bit_count,f
  6228  028E                     i1l3187:
  6229                           
  6230                           ;main.c: 174:         if(bit_count == 32){
  6231  028E  3020               	movlw	32
  6232  028F  067B               	xorwf	CCP4_CallBack@main$F1838@bit_count,w
  6233  0290  1D03               	btfss	3,2
  6234  0291  2A93               	goto	u90_21
  6235  0292  2A94               	goto	u90_20
  6236  0293                     u90_21:
  6237  0293  2B01               	goto	i1l1048
  6238  0294                     u90_20:
  6239  0294                     i1l3189:
  6240                           
  6241                           ;main.c: 176:             if(ir_command == (~ir_command_complement)){
  6242  0294  097C               	comf	_ir_command_complement,w	;volatile
  6243  0295  00F4               	movwf	??_CCP4_CallBack@main$F1842
  6244  0296  01F5               	clrf	??_CCP4_CallBack@main$F1842+1
  6245  0297  09F5               	comf	??_CCP4_CallBack@main$F1842+1,f
  6246  0298  0020               	movlb	0	; select bank0
  6247  0299  0848               	movf	_ir_command,w	;volatile
  6248  029A  00F6               	movwf	??_CCP4_CallBack@main$F1842+2
  6249  029B  01F7               	clrf	??_CCP4_CallBack@main$F1842+3
  6250  029C  0875               	movf	??_CCP4_CallBack@main$F1842+1,w
  6251  029D  0677               	xorwf	??_CCP4_CallBack@main$F1842+3,w
  6252  029E  1D03               	skipz
  6253  029F  2AA2               	goto	u91_25
  6254  02A0  0874               	movf	??_CCP4_CallBack@main$F1842,w
  6255  02A1  0676               	xorwf	??_CCP4_CallBack@main$F1842+2,w
  6256  02A2                     u91_25:
  6257  02A2  1D03               	skipz
  6258  02A3  2AA5               	goto	u91_21
  6259  02A4  2AA6               	goto	u91_20
  6260  02A5                     u91_21:
  6261  02A5  2B01               	goto	i1l1026
  6262  02A6                     u91_20:
  6263  02A6                     i1l3191:
  6264                           
  6265                           ;main.c: 177:                 ir_flag = IR_DONE;
  6266  02A6  3002               	movlw	2
  6267  02A7  00F4               	movwf	??_CCP4_CallBack@main$F1842
  6268  02A8  0874               	movf	??_CCP4_CallBack@main$F1842,w
  6269  02A9  00C7               	movwf	_ir_flag	;volatile
  6270  02AA  2B01               	goto	i1l1048
  6271  02AB                     i1l3193:
  6272  02AB  3003               	movlw	3
  6273  02AC  0273               	subwf	CCP4_CallBack@main$F1838@capturedValue+1,w
  6274  02AD  30FD               	movlw	253
  6275  02AE  1903               	skipnz
  6276  02AF  0272               	subwf	CCP4_CallBack@main$F1838@capturedValue,w
  6277  02B0  1C03               	skipc
  6278  02B1  2AB3               	goto	u92_21
  6279  02B2  2AB4               	goto	u92_20
  6280  02B3                     u92_21:
  6281  02B3  2B01               	goto	i1l1026
  6282  02B4                     u92_20:
  6283  02B4                     i1l3195:
  6284  02B4  3004               	movlw	4
  6285  02B5  0273               	subwf	CCP4_CallBack@main$F1838@capturedValue+1,w
  6286  02B6  30C4               	movlw	196
  6287  02B7  1903               	skipnz
  6288  02B8  0272               	subwf	CCP4_CallBack@main$F1838@capturedValue,w
  6289  02B9  1803               	skipnc
  6290  02BA  2ABC               	goto	u93_21
  6291  02BB  2ABD               	goto	u93_20
  6292  02BC                     u93_21:
  6293  02BC  2B01               	goto	i1l1026
  6294  02BD                     u93_20:
  6295  02BD                     i1l3197:
  6296                           
  6297                           ;main.c: 182:         if(bit_count < 8){
  6298  02BD  3008               	movlw	8
  6299  02BE  027B               	subwf	CCP4_CallBack@main$F1838@bit_count,w
  6300  02BF  1803               	skipnc
  6301  02C0  2AC2               	goto	u94_21
  6302  02C1  2AC3               	goto	u94_20
  6303  02C2                     u94_21:
  6304  02C2  2AC7               	goto	i1l3201
  6305  02C3                     u94_20:
  6306  02C3                     i1l3199:
  6307                           
  6308                           ;main.c: 184:             ir_address <<= 1;
  6309  02C3  1003               	clrc
  6310  02C4  0020               	movlb	0	; select bank0
  6311  02C5  0DCA               	rlf	_ir_address,f	;volatile
  6312                           
  6313                           ;main.c: 185:         } else if(bit_count < 16){
  6314  02C6  2AE4               	goto	i1l3213
  6315  02C7                     i1l3201:
  6316  02C7  3010               	movlw	16
  6317  02C8  027B               	subwf	CCP4_CallBack@main$F1838@bit_count,w
  6318  02C9  1803               	skipnc
  6319  02CA  2ACC               	goto	u95_21
  6320  02CB  2ACD               	goto	u95_20
  6321  02CC                     u95_21:
  6322  02CC  2AD1               	goto	i1l3205
  6323  02CD                     u95_20:
  6324  02CD                     i1l3203:
  6325                           
  6326                           ;main.c: 187:             ir_address_complement <<= 1;
  6327  02CD  1003               	clrc
  6328  02CE  0020               	movlb	0	; select bank0
  6329  02CF  0DC9               	rlf	_ir_address_complement,f	;volatile
  6330                           
  6331                           ;main.c: 188:         } else if(bit_count < 24){
  6332  02D0  2AE4               	goto	i1l3213
  6333  02D1                     i1l3205:
  6334  02D1  3018               	movlw	24
  6335  02D2  027B               	subwf	CCP4_CallBack@main$F1838@bit_count,w
  6336  02D3  1803               	skipnc
  6337  02D4  2AD6               	goto	u96_21
  6338  02D5  2AD7               	goto	u96_20
  6339  02D6                     u96_21:
  6340  02D6  2ADB               	goto	i1l3209
  6341  02D7                     u96_20:
  6342  02D7                     i1l3207:
  6343                           
  6344                           ;main.c: 190:             ir_command <<= 1;
  6345  02D7  1003               	clrc
  6346  02D8  0020               	movlb	0	; select bank0
  6347  02D9  0DC8               	rlf	_ir_command,f	;volatile
  6348                           
  6349                           ;main.c: 191:         } else if(bit_count < 32){
  6350  02DA  2AE4               	goto	i1l3213
  6351  02DB                     i1l3209:
  6352  02DB  3020               	movlw	32
  6353  02DC  027B               	subwf	CCP4_CallBack@main$F1838@bit_count,w
  6354  02DD  1803               	skipnc
  6355  02DE  2AE0               	goto	u97_21
  6356  02DF  2AE1               	goto	u97_20
  6357  02E0                     u97_21:
  6358  02E0  2AE4               	goto	i1l1042
  6359  02E1                     u97_20:
  6360  02E1                     i1l3211:
  6361                           
  6362                           ;main.c: 193:             ir_command_complement <<= 1;
  6363  02E1  1003               	clrc
  6364  02E2  0DFC               	rlf	_ir_command_complement,f	;volatile
  6365  02E3  2AE4               	goto	i1l3213
  6366  02E4                     i1l1042:
  6367  02E4                     i1l3213:
  6368                           
  6369                           ;main.c: 196:         bit_count++;
  6370  02E4  3001               	movlw	1
  6371  02E5  00F4               	movwf	??_CCP4_CallBack@main$F1842
  6372  02E6  0874               	movf	??_CCP4_CallBack@main$F1842,w
  6373  02E7  07FB               	addwf	CCP4_CallBack@main$F1838@bit_count,f
  6374  02E8                     i1l3215:
  6375                           
  6376                           ;main.c: 198:         if(bit_count == 32){
  6377  02E8  3020               	movlw	32
  6378  02E9  067B               	xorwf	CCP4_CallBack@main$F1838@bit_count,w
  6379  02EA  1D03               	btfss	3,2
  6380  02EB  2AED               	goto	u98_21
  6381  02EC  2AEE               	goto	u98_20
  6382  02ED                     u98_21:
  6383  02ED  2B01               	goto	i1l1048
  6384  02EE                     u98_20:
  6385  02EE                     i1l3217:
  6386                           
  6387                           ;main.c: 200:             if(ir_command == (~ir_command_complement)){
  6388  02EE  097C               	comf	_ir_command_complement,w	;volatile
  6389  02EF  00F4               	movwf	??_CCP4_CallBack@main$F1842
  6390  02F0  01F5               	clrf	??_CCP4_CallBack@main$F1842+1
  6391  02F1  09F5               	comf	??_CCP4_CallBack@main$F1842+1,f
  6392  02F2  0020               	movlb	0	; select bank0
  6393  02F3  0848               	movf	_ir_command,w	;volatile
  6394  02F4  00F6               	movwf	??_CCP4_CallBack@main$F1842+2
  6395  02F5  01F7               	clrf	??_CCP4_CallBack@main$F1842+3
  6396  02F6  0875               	movf	??_CCP4_CallBack@main$F1842+1,w
  6397  02F7  0677               	xorwf	??_CCP4_CallBack@main$F1842+3,w
  6398  02F8  1D03               	skipz
  6399  02F9  2AFC               	goto	u99_25
  6400  02FA  0874               	movf	??_CCP4_CallBack@main$F1842,w
  6401  02FB  0676               	xorwf	??_CCP4_CallBack@main$F1842+2,w
  6402  02FC                     u99_25:
  6403  02FC  1D03               	skipz
  6404  02FD  2AFF               	goto	u99_21
  6405  02FE  2B00               	goto	u99_20
  6406  02FF                     u99_21:
  6407  02FF  2B01               	goto	i1l1026
  6408  0300                     u99_20:
  6409  0300  2AA6               	goto	i1l3191
  6410  0301                     i1l1026:
  6411  0301                     i1l1048:
  6412  0301  0008               	return
  6413  0302                     __end_of_CCP4_CallBack@main$F1838:
  6414                           
  6415                           	psect	text25
  6416  0742                     __ptext25:	
  6417 ;; *************** function _CCP4_DefaultCallBack *****************
  6418 ;; Defined at:
  6419 ;;		line 60 in file "mcc_generated_files/ccp4.c"
  6420 ;; Parameters:    Size  Location     Type
  6421 ;;  capturedValu    2    2[COMMON] unsigned short 
  6422 ;; Auto vars:     Size  Location     Type
  6423 ;;		None
  6424 ;; Return value:  Size  Location     Type
  6425 ;;                  1    wreg      void 
  6426 ;; Registers used:
  6427 ;;		None
  6428 ;; Tracked objects:
  6429 ;;		On entry : 0/0
  6430 ;;		On exit  : 0/0
  6431 ;;		Unchanged: 0/0
  6432 ;; Data sizes:     COMMON   BANK0   BANK1   BANK2   BANK3   BANK4   BANK5   BANK6   BANK7   BANK8   BANK9  BANK10  BANK1
      +1  BANK12
  6433 ;;      Params:         2       0       0       0       0       0       0       0       0       0       0       0       
      +0       0
  6434 ;;      Locals:         0       0       0       0       0       0       0       0       0       0       0       0       
      +0       0
  6435 ;;      Temps:          0       0       0       0       0       0       0       0       0       0       0       0       
      +0       0
  6436 ;;      Totals:         2       0       0       0       0       0       0       0       0       0       0       0       
      +0       0
  6437 ;;Total ram usage:        2 bytes
  6438 ;; Hardware stack levels used:    1
  6439 ;; This function calls:
  6440 ;;		Nothing
  6441 ;; This function is called by:
  6442 ;;		_CCP4_Initialize
  6443 ;;		_CCP4_CaptureISR
  6444 ;; This function uses a non-reentrant model
  6445 ;;
  6446                           
  6447                           
  6448                           ;psect for function _CCP4_DefaultCallBack
  6449  0742                     _CCP4_DefaultCallBack:
  6450  0742                     i1l935:	
  6451                           ;incstack = 0
  6452                           ; Regs used in _CCP4_DefaultCallBack: []
  6453                           
  6454  0742  0008               	return
  6455  0743                     __end_of_CCP4_DefaultCallBack:
  6456                           
  6457                           	psect	text26
  6458  06DA                     __ptext26:	
  6459 ;; *************** function _TMR1_WriteTimer *****************
  6460 ;; Defined at:
  6461 ;;		line 113 in file "mcc_generated_files/tmr1.c"
  6462 ;; Parameters:    Size  Location     Type
  6463 ;;  timerVal        2    0[COMMON] unsigned short 
  6464 ;; Auto vars:     Size  Location     Type
  6465 ;;		None
  6466 ;; Return value:  Size  Location     Type
  6467 ;;                  1    wreg      void 
  6468 ;; Registers used:
  6469 ;;		wreg, status,2
  6470 ;; Tracked objects:
  6471 ;;		On entry : 0/0
  6472 ;;		On exit  : 0/0
  6473 ;;		Unchanged: 0/0
  6474 ;; Data sizes:     COMMON   BANK0   BANK1   BANK2   BANK3   BANK4   BANK5   BANK6   BANK7   BANK8   BANK9  BANK10  BANK1
      +1  BANK12
  6475 ;;      Params:         2       0       0       0       0       0       0       0       0       0       0       0       
      +0       0
  6476 ;;      Locals:         0       0       0       0       0       0       0       0       0       0       0       0       
      +0       0
  6477 ;;      Temps:          0       0       0       0       0       0       0       0       0       0       0       0       
      +0       0
  6478 ;;      Totals:         2       0       0       0       0       0       0       0       0       0       0       0       
      +0       0
  6479 ;;Total ram usage:        2 bytes
  6480 ;; Hardware stack levels used:    1
  6481 ;; This function calls:
  6482 ;;		Nothing
  6483 ;; This function is called by:
  6484 ;;		_CCP4_CallBack@main$F1838
  6485 ;;		_TMR1_Reload
  6486 ;; This function uses a non-reentrant model
  6487 ;;
  6488                           
  6489                           
  6490                           ;psect for function _TMR1_WriteTimer
  6491  06DA                     _TMR1_WriteTimer:
  6492  06DA                     i1l3025:	
  6493                           ;incstack = 0
  6494                           ; Regs used in _TMR1_WriteTimer: [wreg+status,2]
  6495                           
  6496                           
  6497                           ;mcc_generated_files/tmr1.c: 113: void TMR1_WriteTimer(uint16_t timerVal);mcc_generated_
      +                          files/tmr1.c: 114: {;mcc_generated_files/tmr1.c: 115:     if (T1CONbits.nT1SYNC == 1)
  6498  06DA  0020               	movlb	0	; select bank0
  6499  06DB  1D18               	btfss	24,2	;volatile
  6500  06DC  2EDE               	goto	u78_21
  6501  06DD  2EDF               	goto	u78_20
  6502  06DE                     u78_21:
  6503  06DE  2EE6               	goto	i1l3035
  6504  06DF                     u78_20:
  6505  06DF                     i1l3027:
  6506                           
  6507                           ;mcc_generated_files/tmr1.c: 116:     {;mcc_generated_files/tmr1.c: 118:         T1CONbi
      +                          ts.TMR1ON = 0;
  6508  06DF  1018               	bcf	24,0	;volatile
  6509  06E0                     i1l3029:
  6510                           
  6511                           ;mcc_generated_files/tmr1.c: 121:         TMR1H = (timerVal >> 8);
  6512  06E0  0871               	movf	TMR1_WriteTimer@timerVal+1,w
  6513  06E1  0097               	movwf	23	;volatile
  6514  06E2                     i1l3031:
  6515                           
  6516                           ;mcc_generated_files/tmr1.c: 122:         TMR1L = timerVal;
  6517  06E2  0870               	movf	TMR1_WriteTimer@timerVal,w
  6518  06E3  0096               	movwf	22	;volatile
  6519  06E4                     i1l3033:
  6520                           
  6521                           ;mcc_generated_files/tmr1.c: 125:         T1CONbits.TMR1ON =1;
  6522  06E4  1418               	bsf	24,0	;volatile
  6523                           
  6524                           ;mcc_generated_files/tmr1.c: 126:     }
  6525  06E5  2EEA               	goto	i1l893
  6526  06E6                     i1l3035:
  6527                           
  6528                           ;mcc_generated_files/tmr1.c: 128:     {;mcc_generated_files/tmr1.c: 130:         TMR1H =
      +                           (timerVal >> 8);
  6529  06E6  0871               	movf	TMR1_WriteTimer@timerVal+1,w
  6530  06E7  0097               	movwf	23	;volatile
  6531  06E8                     i1l3037:
  6532                           
  6533                           ;mcc_generated_files/tmr1.c: 131:         TMR1L = timerVal;
  6534  06E8  0870               	movf	TMR1_WriteTimer@timerVal,w
  6535  06E9  0096               	movwf	22	;volatile
  6536  06EA                     i1l893:
  6537  06EA  0008               	return
  6538  06EB                     __end_of_TMR1_WriteTimer:
  6539  007E                     btemp	set	126	;btemp
  6540  007E                     int$flags	set	126
  6541  007E                     wtemp0	set	126
  6542                           
  6543                           	psect	config
  6544                           
  6545                           ;Config register CONFIG1 @ 0x8007
  6546                           ;	Oscillator Selection
  6547                           ;	FOSC = INTOSC, INTOSC oscillator: I/O function on CLKIN pin
  6548                           ;	Watchdog Timer Enable
  6549                           ;	WDTE = OFF, WDT disabled
  6550                           ;	Power-up Timer Enable
  6551                           ;	PWRTE = OFF, PWRT disabled
  6552                           ;	MCLR Pin Function Select
  6553                           ;	MCLRE = ON, MCLR/VPP pin function is MCLR
  6554                           ;	Flash Program Memory Code Protection
  6555                           ;	CP = OFF, Program memory code protection is disabled
  6556                           ;	Data Memory Code Protection
  6557                           ;	CPD = OFF, Data memory code protection is disabled
  6558                           ;	Brown-out Reset Enable
  6559                           ;	BOREN = ON, Brown-out Reset enabled
  6560                           ;	Clock Out Enable
  6561                           ;	CLKOUTEN = OFF, CLKOUT function is disabled. I/O or oscillator function on the CLKOUT 
      +                          pin
  6562                           ;	Internal/External Switchover
  6563                           ;	IESO = ON, Internal/External Switchover mode is enabled
  6564                           ;	Fail-Safe Clock Monitor Enable
  6565                           ;	FCMEN = ON, Fail-Safe Clock Monitor is enabled
  6566  8007                     	org	32775
  6567  8007  3FE4               	dw	16356
  6568                           
  6569                           ;Config register CONFIG2 @ 0x8008
  6570                           ;	Flash Memory Self-Write Protection
  6571                           ;	WRT = OFF, Write protection off
  6572                           ;	Voltage Regulator Capacitor Enable
  6573                           ;	VCAPEN = OFF, All VCAP pin functionality is disabled
  6574                           ;	PLL Enable
  6575                           ;	PLLEN = ON, 4x PLL enabled
  6576                           ;	Stack Overflow/Underflow Reset Enable
  6577                           ;	STVREN = ON, Stack Overflow or Underflow will cause a Reset
  6578                           ;	Brown-out Reset Voltage Selection
  6579                           ;	BORV = LO, Brown-out Reset Voltage (Vbor), low trip point selected.
  6580                           ;	Low-Voltage Programming Enable
  6581                           ;	LVP = ON, Low-voltage programming enabled
  6582  8008                     	org	32776
  6583  8008  3FFF               	dw	16383

Data Sizes:
    Strings     0
    Constant    32
    Data        0
    BSS         47
    Persistent  32
    Stack       0

Auto Spaces:
    Space          Size  Autos    Used
    COMMON           14     11      14
    BANK0            80      8      52
    BANK1            80      0       0
    BANK2            80      0       0
    BANK3            80      0       0
    BANK4            80      0       0
    BANK5            80      0       0
    BANK6            80      0       0
    BANK7            80      0       0
    BANK8            80      0       0
    BANK9            80      0       0
    BANK10           80      0       0
    BANK11           80      0       0
    BANK12           48      0       0

Pointer List with Targets:

    I2C_Read1ByteRegister@returnValue.data	PTR unsigned char  size(1) Largest target is 0

    I2C_Read2ByteRegister@returnValue.data	PTR unsigned char  size(1) Largest target is 0

    I2C_Write1ByteRegister@data.data	PTR unsigned char  size(1) Largest target is 0

    I2C_Write2ByteRegister@data.data	PTR unsigned char  size(1) Largest target is 0

    I2C_DO_TX$2816$0	PTR void  size(1) Largest target is 4
		 -> I2C_ReadDataBlock@bufferBlock(COMMON[3]), I2C_Write2ByteRegister@data(COMMON[2]), I2C_Write1ByteRegister@data(COMMON[1]), I2C_Read2ByteRegister@returnValue(COMMON[2]), 
		 -> NULL(NULL[0]), I2C_Read1ByteRegister@returnValue(COMMON[1]), 

    cb$0	PTR void  size(1) Largest target is 4
		 -> I2C_ReadDataBlock@bufferBlock(COMMON[3]), I2C_Write2ByteRegister@data(COMMON[2]), I2C_Write1ByteRegister@data(COMMON[1]), I2C_Read2ByteRegister@returnValue(COMMON[2]), 
		 -> NULL(NULL[0]), I2C_Read1ByteRegister@returnValue(COMMON[1]), 

    cb$0	PTR void  size(1) Largest target is 4
		 -> I2C_ReadDataBlock@bufferBlock(COMMON[3]), I2C_Write2ByteRegister@data(COMMON[2]), I2C_Write1ByteRegister@data(COMMON[1]), I2C_Read2ByteRegister@returnValue(COMMON[2]), 
		 -> NULL(NULL[0]), I2C_Read1ByteRegister@returnValue(COMMON[1]), 

    Absolute function$0	PTR void  size(1) Largest target is 4
		 -> I2C_ReadDataBlock@bufferBlock(COMMON[3]), I2C_Write2ByteRegister@data(COMMON[2]), I2C_Write1ByteRegister@data(COMMON[1]), I2C_Read2ByteRegister@returnValue(COMMON[2]), 
		 -> NULL(NULL[0]), I2C_Read1ByteRegister@returnValue(COMMON[1]), 

    S1027$0$0	PTR void  size(1) Largest target is 4
		 -> I2C_ReadDataBlock@bufferBlock(COMMON[3]), I2C_Write2ByteRegister@data(COMMON[2]), I2C_Write1ByteRegister@data(COMMON[1]), I2C_Read2ByteRegister@returnValue(COMMON[2]), 
		 -> NULL(NULL[0]), I2C_Read1ByteRegister@returnValue(COMMON[1]), 

    CCP4_SetCallBack@customCallBack	PTR FTN(unsigned short ,)void  size(2) Largest target is 1
		 -> CCP4_CallBack@main$F1838(), CCP4_DefaultCallBack(), 

    CCP4_CallBack	PTR FTN(unsigned short ,)void  size(2) Largest target is 1
		 -> CCP4_CallBack@main$F1838(), CCP4_DefaultCallBack(), Absolute function(), 

    S1027$data_ptr	PTR unsigned char  size(1) Largest target is 4
		 -> I2C_ReadDataBlock@reg(COMMON[1]), I2C_ReadDataBlock@bufferBlock(COMMON[3]), I2C_Write2ByteRegister@reg(COMMON[1]), I2C_Write2ByteRegister@data(COMMON[2]), 
		 -> I2C_Write1ByteRegister@reg(COMMON[1]), I2C_Write1ByteRegister@data(COMMON[1]), I2C_Read2ByteRegister@reg(COMMON[1]), I2C_Read2ByteRegister@returnValue(COMMON[2]), 
		 -> NULL(NULL[0]), I2C_Read1ByteRegister@reg(COMMON[1]), I2C_Read1ByteRegister@returnValue(COMMON[1]), 

    I2C_Status.data_ptr	PTR unsigned char  size(1) Largest target is 4
		 -> I2C_ReadDataBlock@reg(COMMON[1]), I2C_ReadDataBlock@bufferBlock(COMMON[3]), I2C_Write2ByteRegister@reg(COMMON[1]), I2C_Write2ByteRegister@data(COMMON[2]), 
		 -> I2C_Write1ByteRegister@reg(COMMON[1]), I2C_Write1ByteRegister@data(COMMON[1]), I2C_Read2ByteRegister@reg(COMMON[1]), I2C_Read2ByteRegister@returnValue(COMMON[2]), 
		 -> NULL(NULL[0]), I2C_Read1ByteRegister@reg(COMMON[1]), I2C_Read1ByteRegister@returnValue(COMMON[1]), 

    S1027$callbackPayload	PTR void [6] size(1) Largest target is 4
		 -> I2C_ReadDataBlock@bufferBlock(COMMON[3]), I2C_Write2ByteRegister@data(COMMON[2]), I2C_Write1ByteRegister@data(COMMON[1]), I2C_Read2ByteRegister@returnValue(COMMON[2]), 
		 -> NULL(NULL[0]), I2C_Read1ByteRegister@returnValue(COMMON[1]), 

    I2C_Status.callbackPayload	PTR void [6] size(1) Largest target is 4
		 -> I2C_ReadDataBlock@bufferBlock(COMMON[3]), I2C_Write2ByteRegister@data(COMMON[2]), I2C_Write1ByteRegister@data(COMMON[1]), I2C_Read2ByteRegister@returnValue(COMMON[2]), 
		 -> NULL(NULL[0]), I2C_Read1ByteRegister@returnValue(COMMON[1]), 

    S1027$callbackTable	PTR FTN(PTR void ,)enum E360[6] size(2) Largest target is 1
		 -> I2C_CallbackReturnReset(), I2C_CallbackReturnStop(), Absolute function(), rdBlkRegCompleteHandler(), 
		 -> wr2RegCompleteHandler(), wr1RegCompleteHandler(), rd2RegCompleteHandler(), rd1RegCompleteHandler(), 

    I2C_Status.callbackTable	PTR FTN(PTR void ,)enum E360[6] size(2) Largest target is 1
		 -> I2C_CallbackReturnReset(), I2C_CallbackReturnStop(), Absolute function(), rdBlkRegCompleteHandler(), 
		 -> wr2RegCompleteHandler(), wr1RegCompleteHandler(), rd2RegCompleteHandler(), rd1RegCompleteHandler(), 

    i2c_fsmStateTable	const PTR FTN()enum E3090[16] size(2) Largest target is 1
		 -> I2C_DO_ADDRESS_NACK(), I2C_DO_RESET(), I2C_DO_RX_NACK_RESTART(), I2C_DO_RX_NACK_STOP(), 
		 -> I2C_DO_RX_ACK(), I2C_DO_SEND_STOP(), I2C_DO_SEND_RESTART(), I2C_DO_SEND_RESTART_WRITE(), 
		 -> I2C_DO_SEND_RESTART_READ(), I2C_DO_TX_EMPTY(), I2C_DO_RCEN(), I2C_DO_RX(), 
		 -> I2C_DO_TX(), I2C_DO_SEND_ADR_WRITE(), I2C_DO_SEND_ADR_READ(), I2C_DO_IDLE(), 

    EUSART_SetErrorHandler@interruptHandler	PTR FTN()void  size(2) Largest target is 1
		 -> EUSART_DefaultErrorHandler(), 

    EUSART_ErrorHandler	PTR FTN()void  size(2) Largest target is 1
		 -> Absolute function(), EUSART_DefaultErrorHandler(), 

    EUSART_SetOverrunErrorHandler@interruptHandler	PTR FTN()void  size(2) Largest target is 1
		 -> EUSART_DefaultOverrunErrorHandler(), 

    EUSART_OverrunErrorHandler	PTR FTN()void  size(2) Largest target is 1
		 -> Absolute function(), EUSART_DefaultOverrunErrorHandler(), 

    EUSART_SetFramingErrorHandler@interruptHandler	PTR FTN()void  size(2) Largest target is 1
		 -> EUSART_DefaultFramingErrorHandler(), 

    EUSART_FramingErrorHandler	PTR FTN()void  size(2) Largest target is 1
		 -> Absolute function(), EUSART_DefaultFramingErrorHandler(), 

    rdBlkRegCompleteHandler@ptr.data	PTR unsigned char  size(1) Largest target is 0

    S94$data	PTR unsigned char  size(1) Largest target is 0

    bufferBlock.data	PTR unsigned char  size(1) Largest target is 0


Critical Paths under _main in COMMON

    None.

Critical Paths under _INTERRUPT_InterruptManager in COMMON

    _INTERRUPT_InterruptManager->_CCP4_CaptureISR
    _CCP4_CaptureISR->_CCP4_CallBack@main$F1838
    _CCP4_CallBack@main$F1838->_TMR1_WriteTimer

Critical Paths under _main in BANK0

    _main->_reverseBits
    _EUSART_Initialize->_EUSART_SetErrorHandler
    _EUSART_Initialize->_EUSART_SetFramingErrorHandler
    _EUSART_Initialize->_EUSART_SetOverrunErrorHandler
    _CCP4_Initialize->_CCP4_SetCallBack

Critical Paths under _INTERRUPT_InterruptManager in BANK0

    None.

Critical Paths under _main in BANK1

    None.

Critical Paths under _INTERRUPT_InterruptManager in BANK1

    None.

Critical Paths under _main in BANK2

    None.

Critical Paths under _INTERRUPT_InterruptManager in BANK2

    None.

Critical Paths under _main in BANK3

    None.

Critical Paths under _INTERRUPT_InterruptManager in BANK3

    None.

Critical Paths under _main in BANK4

    None.

Critical Paths under _INTERRUPT_InterruptManager in BANK4

    None.

Critical Paths under _main in BANK5

    None.

Critical Paths under _INTERRUPT_InterruptManager in BANK5

    None.

Critical Paths under _main in BANK6

    None.

Critical Paths under _INTERRUPT_InterruptManager in BANK6

    None.

Critical Paths under _main in BANK7

    None.

Critical Paths under _INTERRUPT_InterruptManager in BANK7

    None.

Critical Paths under _main in BANK8

    None.

Critical Paths under _INTERRUPT_InterruptManager in BANK8

    None.

Critical Paths under _main in BANK9

    None.

Critical Paths under _INTERRUPT_InterruptManager in BANK9

    None.

Critical Paths under _main in BANK10

    None.

Critical Paths under _INTERRUPT_InterruptManager in BANK10

    None.

Critical Paths under _main in BANK11

    None.

Critical Paths under _INTERRUPT_InterruptManager in BANK11

    None.

Critical Paths under _main in BANK12

    None.

Critical Paths under _INTERRUPT_InterruptManager in BANK12

    None.

Call Graph Tables:

 ---------------------------------------------------------------------------------
 (Depth) Function   	        Calls       Base Space   Used Autos Params    Refs
 ---------------------------------------------------------------------------------
 (0) _main                                                 6     6      0     978
                                              4 BANK0      4     4      0
                   _CCP4_SetCallBack
                      _LCD_Digit1Num
                      _LCD_Digit2Num
                      _LCD_Digit3Num
                      _LCD_Digit4Num
                  _SYSTEM_Initialize
                        _reverseBits
 ---------------------------------------------------------------------------------
 (1) _reverseBits                                          4     4      0     157
                                              0 BANK0      4     4      0
 ---------------------------------------------------------------------------------
 (1) _SYSTEM_Initialize                                    0     0      0     468
                    _CCP4_Initialize
                     _DAC_Initialize
                  _EUSART_Initialize
                     _FVR_Initialize
                     _I2C_Initialize
                     _LCD_Initialize
              _OSCILLATOR_Initialize
             _PIN_MANAGER_Initialize
                    _TMR0_Initialize
                    _TMR1_Initialize
                     _WDT_Initialize
 ---------------------------------------------------------------------------------
 (2) _WDT_Initialize                                       0     0      0       0
 ---------------------------------------------------------------------------------
 (2) _TMR1_Initialize                                      0     0      0       0
 ---------------------------------------------------------------------------------
 (2) _TMR0_Initialize                                      0     0      0       0
 ---------------------------------------------------------------------------------
 (2) _PIN_MANAGER_Initialize                               0     0      0       0
 ---------------------------------------------------------------------------------
 (2) _OSCILLATOR_Initialize                                0     0      0       0
 ---------------------------------------------------------------------------------
 (2) _LCD_Initialize                                       0     0      0       0
 ---------------------------------------------------------------------------------
 (2) _I2C_Initialize                                       0     0      0       0
 ---------------------------------------------------------------------------------
 (2) _FVR_Initialize                                       0     0      0       0
 ---------------------------------------------------------------------------------
 (2) _EUSART_Initialize                                    0     0      0     294
             _EUSART_SetErrorHandler
      _EUSART_SetFramingErrorHandler
      _EUSART_SetOverrunErrorHandler
 ---------------------------------------------------------------------------------
 (3) _EUSART_SetOverrunErrorHandler                        2     0      2      98
                                              0 BANK0      2     0      2
 ---------------------------------------------------------------------------------
 (3) _EUSART_SetFramingErrorHandler                        2     0      2      98
                                              0 BANK0      2     0      2
 ---------------------------------------------------------------------------------
 (3) _EUSART_SetErrorHandler                               2     0      2      98
                                              0 BANK0      2     0      2
 ---------------------------------------------------------------------------------
 (2) _DAC_Initialize                                       0     0      0       0
 ---------------------------------------------------------------------------------
 (2) _CCP4_Initialize                                      0     0      0     174
                   _CCP4_SetCallBack
 ---------------------------------------------------------------------------------
 (3) _CCP4_SetCallBack                                     2     0      2     174
                                              0 BANK0      2     0      2
 ---------------------------------------------------------------------------------
 (1) _LCD_Digit4Num                                        3     3      0      22
                                              0 BANK0      3     3      0
 ---------------------------------------------------------------------------------
 (1) _LCD_Digit3Num                                        3     3      0      22
                                              0 BANK0      3     3      0
 ---------------------------------------------------------------------------------
 (1) _LCD_Digit2Num                                        3     3      0      22
                                              0 BANK0      3     3      0
 ---------------------------------------------------------------------------------
 (1) _LCD_Digit1Num                                        3     3      0      22
                                              0 BANK0      3     3      0
 ---------------------------------------------------------------------------------
 Estimated maximum stack depth 3
 ---------------------------------------------------------------------------------
 (Depth) Function   	        Calls       Base Space   Used Autos Params    Refs
 ---------------------------------------------------------------------------------
 (4) _INTERRUPT_InterruptManager                           0     0      0     516
                    _CCP4_CaptureISR
 ---------------------------------------------------------------------------------
 (5) _CCP4_CaptureISR                                      3     3      0     516
                                              8 COMMON     3     3      0
                   Absolute function *
           _CCP4_CallBack@main$F1838 *
               _CCP4_DefaultCallBack *
 ---------------------------------------------------------------------------------
 (6) _CCP4_DefaultCallBack                                 2     0      2       0
                                              2 COMMON     2     0      2
 ---------------------------------------------------------------------------------
 (6) _CCP4_CallBack@main$F1838                             6     4      2     469
                                              2 COMMON     6     4      2
                    _TMR1_WriteTimer
 ---------------------------------------------------------------------------------
 (7) _TMR1_WriteTimer                                      2     0      2     240
                                              0 COMMON     2     0      2
 ---------------------------------------------------------------------------------
 (6) Absolute function(Fake)                               2     0      2       0
 ---------------------------------------------------------------------------------
 Estimated maximum stack depth 7
 ---------------------------------------------------------------------------------

 Call Graph Graphs:

 _main (ROOT)
   _CCP4_SetCallBack
   _LCD_Digit1Num
   _LCD_Digit2Num
   _LCD_Digit3Num
   _LCD_Digit4Num
   _SYSTEM_Initialize
     _CCP4_Initialize
       _CCP4_SetCallBack
     _DAC_Initialize
     _EUSART_Initialize
       _EUSART_SetErrorHandler
       _EUSART_SetFramingErrorHandler
       _EUSART_SetOverrunErrorHandler
     _FVR_Initialize
     _I2C_Initialize
     _LCD_Initialize
     _OSCILLATOR_Initialize
     _PIN_MANAGER_Initialize
     _TMR0_Initialize
     _TMR1_Initialize
     _WDT_Initialize
   _reverseBits

 _INTERRUPT_InterruptManager (ROOT)
   _CCP4_CaptureISR
     Absolute function(Fake) *
     _CCP4_CallBack@main$F1838 *
       _TMR1_WriteTimer
     _CCP4_DefaultCallBack *

 Address spaces:
Name               Size   Autos  Total    Cost      Usage
BIGRAM             3F0      0       0       0        0.0%
EEDATA             100      0       0       0        0.0%
NULL                 0      0       0       0        0.0%
CODE                 0      0       0       0        0.0%
BITCOMMON            E      0       0       1        0.0%
BITSFR0              0      0       0       1        0.0%
SFR0                 0      0       0       1        0.0%
COMMON               E      B       E       2      100.0%
BITSFR1              0      0       0       2        0.0%
SFR1                 0      0       0       2        0.0%
BITSFR2              0      0       0       3        0.0%
SFR2                 0      0       0       3        0.0%
STACK                0      0       0       3        0.0%
BITBANK0            50      0       0       4        0.0%
BITSFR3              0      0       0       4        0.0%
SFR3                 0      0       0       4        0.0%
BANK0               50      8      34       5       65.0%
BITSFR4              0      0       0       5        0.0%
SFR4                 0      0       0       5        0.0%
BITBANK1            50      0       0       6        0.0%
BITSFR5              0      0       0       6        0.0%
SFR5                 0      0       0       6        0.0%
BANK1               50      0       0       7        0.0%
BITSFR6              0      0       0       7        0.0%
SFR6                 0      0       0       7        0.0%
BITBANK2            50      0       0       8        0.0%
BITSFR7              0      0       0       8        0.0%
SFR7                 0      0       0       8        0.0%
BANK2               50      0       0       9        0.0%
BITSFR8              0      0       0       9        0.0%
SFR8                 0      0       0       9        0.0%
BITBANK3            50      0       0      10        0.0%
BITSFR9              0      0       0      10        0.0%
SFR9                 0      0       0      10        0.0%
BANK3               50      0       0      11        0.0%
BITSFR10             0      0       0      11        0.0%
SFR10                0      0       0      11        0.0%
BITBANK4            50      0       0      12        0.0%
BITSFR11             0      0       0      12        0.0%
SFR11                0      0       0      12        0.0%
BANK4               50      0       0      13        0.0%
BITSFR12             0      0       0      13        0.0%
SFR12                0      0       0      13        0.0%
BITBANK5            50      0       0      14        0.0%
BITSFR13             0      0       0      14        0.0%
SFR13                0      0       0      14        0.0%
BANK5               50      0       0      15        0.0%
BITSFR14             0      0       0      15        0.0%
SFR14                0      0       0      15        0.0%
BITBANK6            50      0       0      16        0.0%
BITSFR15             0      0       0      16        0.0%
SFR15                0      0       0      16        0.0%
BANK6               50      0       0      17        0.0%
BITSFR16             0      0       0      17        0.0%
SFR16                0      0       0      17        0.0%
BITBANK7            50      0       0      18        0.0%
BITSFR17             0      0       0      18        0.0%
SFR17                0      0       0      18        0.0%
BANK7               50      0       0      19        0.0%
BITSFR18             0      0       0      19        0.0%
SFR18                0      0       0      19        0.0%
BITSFR19             0      0       0      20        0.0%
SFR19                0      0       0      20        0.0%
ABS                  0      0      42      20        0.0%
BITBANK8            50      0       0      21        0.0%
BITSFR20             0      0       0      21        0.0%
SFR20                0      0       0      21        0.0%
BANK8               50      0       0      22        0.0%
BITSFR21             0      0       0      22        0.0%
SFR21                0      0       0      22        0.0%
BITBANK9            50      0       0      23        0.0%
BITSFR22             0      0       0      23        0.0%
SFR22                0      0       0      23        0.0%
BANK9               50      0       0      24        0.0%
BITSFR23             0      0       0      24        0.0%
SFR23                0      0       0      24        0.0%
BITBANK10           50      0       0      25        0.0%
BITSFR24             0      0       0      25        0.0%
SFR24                0      0       0      25        0.0%
BANK10              50      0       0      26        0.0%
BITSFR25             0      0       0      26        0.0%
SFR25                0      0       0      26        0.0%
BITBANK11           50      0       0      27        0.0%
BITSFR26             0      0       0      27        0.0%
SFR26                0      0       0      27        0.0%
BANK11              50      0       0      28        0.0%
BITSFR27             0      0       0      28        0.0%
SFR27                0      0       0      28        0.0%
BITBANK12           30      0       0      29        0.0%
BITSFR28             0      0       0      29        0.0%
SFR28                0      0       0      29        0.0%
BANK12              30      0       0      30        0.0%
BITSFR29             0      0       0      30        0.0%
SFR29                0      0       0      30        0.0%
BITSFR30             0      0       0      31        0.0%
SFR30                0      0       0      31        0.0%
DATA                 0      0      42      31        0.0%
BITSFR31             0      0       0      32        0.0%
SFR31                0      0       0      32        0.0%


Microchip Technology PIC Macro Assembler V2.30 build 20200825195618 
Symbol Table                                                                                   Tue Oct 06 11:03:52 2020

                              _CCP4_Initialize 06C8                                 _LCD_Initialize 069A  
                                  _SSPSTATbits 0214                         __end_of_FVR_Initialize 0742  
                              _timer0ReloadVal 007D                                 ?_LCD_Digit1Num 0070  
                               ?_LCD_Digit2Num 0070                                 ?_LCD_Digit3Num 0070  
                                          l401 063D                                            l209 06B1  
                               ?_LCD_Digit4Num 0070                                            l440 0727  
                                          l443 0721                                            l355 0699  
                                          l453 0741                                            l446 072D  
                                          l563 0715                                            l831 06FD  
                                          l912 0733                                            l834 0702  
                                          l828 065F                                            l837 073D  
                                          l944 0739                                            l848 070C  
                                          l938 06D9                                            l879 06F6  
                                          u790 0702                                            u791 0701  
                              _timer1ReloadVal 003F                 ?_EUSART_SetFramingErrorHandler 004C  
               CCP4_SetCallBack@customCallBack 004C                                            wreg 0009  
                             _CCP4_SetCallBack 0734                        __end_of_CCP4_CaptureISR 06C8  
                                 _I2C_DO_RESET 0000                                           l1100 0320  
                                         l1012 0599                                           l1101 0329  
                                         l1110 037A                                           l1102 0332  
                                         l1111 0383                                           l1103 033B  
                                         l1112 038C                                           l1104 0344  
                                         l1113 0395                                           l1105 034D  
                                         l1106 0356                                           l1114 03D8  
                                         l1130 005A                                           l1122 0036  
                                         l1107 035F                                           l1060 04F2  
                                         l1052 04B3                                           l1108 0368  
                                         l1132 0063                                           l1124 003F  
                                         l1061 04FB                                           l1109 0371  
                                         l1141 0087                                           l1062 0504  
                                         l1054 04BC                                           l1070 0586  
                                         l1150 00A2                                           l1134 006C  
                                         l1126 0048                                           l1063 050D  
                                         l1055 04C5                                           l1119 002D  
                                         l1064 0516                                           l1056 04CE  
                                         l1080 0409                                           l1160 00C6  
                                         l1144 0090                                           l1136 0075  
                                         l1128 0051                                           l1065 051F  
                                         l1057 04D7                                           l1081 0412  
                                         l1153 00AB                                           l1066 0528  
                                         l1058 04E0                                           l1090 0463  
                                         l1082 041B                                           l1074 03DC  
                                         l1170 00F3                                           l1162 00CF  
                                         l1138 007E                                           l1067 0531  
                                         l1059 04E9                                           l1091 046C  
                                         l1083 0424                                           l1147 0099  
                                         l1068 053A                                           l1084 042D  
                                         l1076 03E5                                           l1092 04AF  
                                         l1180 0120                                           l1172 00FC  
                                         l1164 00D8                                           l1156 00B4  
                                         l1069 0543                                           l1085 0436  
                                         l1077 03EE                                           l3021 071C  
                                         l3101 0714                                           l1086 043F  
                                         l1078 03F7                                           l1182 0129  
                                         l1174 0105                                           l1166 00E1  
                                         l1158 00BD                                           l1087 0448  
                                         l1079 0400                                           l1183 0132  
                                         l3111 072E                                           l3023 0728  
                                         l3103 06F7                                           l1088 0451  
                                         l1096 0305                                           l1176 010E  
                                         l1168 00EA                                           l1184 0205  
                                         l1089 045A                                           l3121 06D5  
                                         l3113 06C8                                           l3041 069A  
                                         l3105 06FA                                           l1193 0617  
                                         l1098 030E                                           l1178 0117  
                                         l1099 0317                                           l3123 06D7  
                                         l3115 06CB                                           l3019 0722  
                                         l3051 06A5                                           l3043 069C  
                                         l3107 06FB                                           l3131 06F4  
                                         l3117 06CC                                           l3061 06AA  
                                         l3053 06A6                                           l3045 06A2  
                                         l3133 0703                                           l3125 06EB  
                                         l3109 073A                                           l3221 063E  
                                         l3301 058A                                           l3039 0734  
                                         l3119 06CD                                           l3063 06AB  
                                         l3055 06A7                                           l3047 06A3  
                                         l3071 0685                                           l3135 0708  
                                         l3127 06EF                                           l3231 0616  
                                         l3311 059A                                           l3303 058C  
                                         l3065 06AD                                           l3057 06A8  
                                         l3049 06A4                                           l3081 0697  
                                         l3073 0688                                           l3137 070A  
                                         l3129 06F0                                           l3321 05C0  
                                         l3313 05A1                                           l3305 0590  
                                         l3235 04B2                                           l3091 063B  
                                         l3083 0618                                           l3067 06AF  
                                         l3059 06A9                                           l3075 0690  
                                         l3139 070B                                           l3323 05CB  
                                         l3315 05A7                                           l3307 0597  
                                         l3237 054C                                           l3245 03DB  
                                         l3085 0623                                           l3093 073E  
                                         l3077 0691                                           l3069 0680  
                                         l3229 05E3                                           l3325 05D6  
                                         l3317 05AF                                           l3309 0598  
                                         l3247 0475                                           l3255 0304  
                                         l3087 062B                                           l3095 070D  
                                         l3079 0695                                           l3327 05DC  
                                         l3319 05BA                                           l3257 039E  
                                         l3265 002C                                           l3089 0633  
                                         l3097 070F                                           l3451 03A6  
                                         l3267 013B                                           l3099 0711  
                                         l3453 047D                                           l3455 0554  
                                         l3449 0143                                           l3297 0587  
                                         l3299 0587                                           u1100 05A1  
                                         u1005 05E7                                           u1101 05A0  
                                         u1110 05A7                                           u1015 05ED  
                                         u1111 05A6                                           u1025 05FA  
                                         u1035 0600                                           u1045 060D  
                                         u1125 05B2                                           u1135 05CE  
                                         _LATA 010C                                           _LATB 010D  
                                         _LATC 010E                                           _LATE 0110  
                                         _PLLR 04D6                                           _TMR0 0015  
                                         _WPUB 020D                                           _WPUE 0210  
                                         _main 0587                                           fsr0h 0005  
                                         indf0 0000                                           fsr0l 0004  
                                         btemp 007E                                           start 0019  
                       __end_of_LCD_Initialize 06B2                        __end_of_TMR0_Initialize 070D  
                              ?_FVR_Initialize 0070                 __size_of_OSCILLATOR_Initialize 000C  
                                _I2C_DO_RX_ACK 0000                  __end_of_OSCILLATOR_Initialize 0703  
                                        ?_main 0070                         ??_CCP4_DefaultCallBack 0074  
                                        _T1CON 0018                                          _LCDRL 0795  
                                        _LCDPS 0792                                          i1l941 06C7  
                                        i1l935 0742                                          i1l961 0017  
                                        i1l893 06EA                                          _RCREG 0199  
                                        _RCSTA 019D                                          _TMR1H 0017  
                                        _TMR1L 0016                                          u80_20 0215  
                                        u80_21 0214                                          u81_20 021E  
                                        u81_21 021D                                          _TRISA 008C  
                                        _TRISB 008D                                          _TRISC 008E  
                                        _TRISE 0090                                          u90_20 0294  
                                        u82_20 0232                                          u90_21 0293  
                                        u82_21 0231                                          u91_20 02A6  
                                        u83_20 023B                                          u91_21 02A5  
                                        u83_21 023A                                          u91_25 02A2  
                                        u92_20 02B4                                          u84_20 024A  
                                        u92_21 02B3                                          u84_21 0249  
                                        u93_20 02BD                                          u85_20 0253  
                                        u93_21 02BC                                          u85_21 0252  
                                        u78_20 06DF                                          u94_20 02C3  
                                        u86_20 0259                                          u78_21 06DE  
                                        u94_21 02C2                                          u86_21 0258  
                                        u95_20 02CD                                          u87_20 0267  
                                        u95_21 02CC                                          u87_21 0266  
                                        u96_20 02D7                                          u88_20 0275  
                                        u96_21 02D6                                          u88_21 0274  
                                        u97_20 02E1                                          u89_20 0283  
                                        u97_21 02E0                                          u89_21 0282  
                                        _TXREG 019A                                          u98_20 02EE  
                                        u98_21 02ED                                          u99_20 0300  
                                        u99_21 02FF                                          u99_25 02FC  
                                        _TXSTA 019E                                 _WDT_Initialize 073A  
                      __end_of_TMR1_Initialize 06F7                                          pclath 000A  
                                        status 0003                        __end_of_CCP4_Initialize 06DA  
                                        wtemp0 007E                                _TMR1_WriteTimer 06DA  
                             ??_DAC_Initialize 004C                                ?_LCD_Initialize 0070  
                              __initialization 001B                                   __end_of_main 05E1  
                     _CCP4_CallBack@main$F1838 0206                    ?_INTERRUPT_InterruptManager 0070  
                              ??_LCD_Digit1Num 004C                                ??_LCD_Digit2Num 004C  
                              ??_LCD_Digit3Num 004C                                ??_LCD_Digit4Num 004C  
                                       ??_main 0050                         __end_of_WDT_Initialize 073E  
                             ?_CCP4_CaptureISR 0070              _EUSART_DefaultFramingErrorHandler 0000  
                   _EUSART_OverrunErrorHandler 0043                                         _EEADRH 0192  
                                       _EEADRL 0191                                         _EEDATH 0194  
                                       _CCPR4H 0319                                         _EEDATL 0193  
                                       _CCPR4L 0318                                         _EECON2 0196  
                                       _APFCON 011D                                         _ANSELA 018C  
                                       _ANSELB 018D                                         _BORCON 0116  
                                       _T1GCON 0019                                         _LCDCON 0791  
                                       _LCDCST 0794                                         _LCDSE0 0798  
                                       _LCDSE1 0799                                         _LCDREF 0793  
                                       i1l1031 028A                                         i1l1042 02E4  
                                       i1l1026 0301                        TMR1_WriteTimer@timerVal 0070  
                                       i1l1048 0301                                         i1l3031 06E2  
                                       i1l3033 06E4                                         i1l3025 06DA  
                                       i1l3201 02C7                                         i1l3027 06DF  
                                       i1l3035 06E6                                         i1l3211 02E1  
                                       i1l3203 02CD                                         i1l3037 06E8  
                                       i1l3029 06E0                                         i1l3205 02D1  
                                       i1l3213 02E4                                         i1l3141 0206  
                                       i1l3215 02E8                                         i1l3207 02D7  
                                       i1l3151 0229                                         i1l3143 020C  
                                       i1l3223 06B2                                         i1l3217 02EE  
                                       i1l3209 02DB                                         i1l3161 0253  
                                       i1l3153 0232                                         i1l3145 0215  
                                       i1l3225 06B4                                         i1l3171 026A  
                                       i1l3163 0259                                         i1l3155 023B  
                                       i1l3147 021E                                         i1l3227 06BD  
                                       i1l3181 0283                                         i1l3173 026F  
                                       i1l3165 025C                                         i1l3157 0241  
                                       i1l3149 0224                                         i1l3191 02A6  
                                       i1l3183 0285                                         i1l3175 0275  
                                       i1l3167 0261                                         i1l3159 024A  
                                       i1l3177 0278                                         i1l3169 0267  
                                       i1l3185 028A                                         i1l3193 02AB  
                                       i1l3195 02B4                                         i1l3187 028E  
                                       i1l3179 027D                                         i1l3291 000A  
                                       i1l3197 02BD                                         i1l3189 0294  
                                       i1l3293 000F                                         i1l3199 02C3  
                                       i1l3295 0014                                         u107_20 000A  
                                       u107_21 0009                                         i1l3289 0006  
                                       u108_20 000F                                         u108_21 000E  
                                       u109_20 0014                                         u109_21 0013  
                                       _FVRCON 0117                                         _OSCCON 0099  
                                       _SPBRGH 019C                                         _SPBRGL 019B  
                                       _WDTCON 0097                                         _SSPADD 0212  
                                       _SSPBUF 0211                                   ?_reverseBits 0070  
                             ?_TMR0_Initialize 0070                                  _CCP4_CallBack 003D  
                      __size_of_I2C_Initialize 0009                            _I2C_DO_ADDRESS_NACK 0000  
                              ?_WDT_Initialize 0070                        __end_of_TMR1_WriteTimer 06EB  
                             ?_TMR1_Initialize 0070                              _SYSTEM_Initialize 063E  
                      __end_of__initialization 0026                               ?_CCP4_Initialize 0070  
                           ?_SYSTEM_Initialize 0070                        _rdBlkRegCompleteHandler 0000  
                     __end_of_CCP4_SetCallBack 073A                                 __pcstackCOMMON 0070  
                       _I2C_CallbackReturnStop 0000                            ??_SYSTEM_Initialize 004E  
                               _OPTION_REGbits 0095                ??_EUSART_SetOverrunErrorHandler 004E  
                                 _LCDDATA0bits 07A0                                   _LCDDATA1bits 07A1  
                                 _LCDDATA3bits 07A3                                   _LCDDATA4bits 07A4  
                                 _LCDDATA6bits 07A6                                   _LCDDATA7bits 07A7  
                                 _LCDDATA9bits 07A9                      __end_of_SYSTEM_Initialize 0660  
                                   __pbssBANK0 0020                            _I2C_DO_RX_NACK_STOP 0000  
                        _rd1RegCompleteHandler 0000                          _wr1RegCompleteHandler 0000  
                             ??_FVR_Initialize 004C                                     __pmaintext 0587  
                              _I2C_DO_TX_EMPTY 0000                                     __pintentry 0004  
                                      _DACCON0 0118                                        _DACCON1 0119  
                                      _CCP4CON 031A                                        _BAUDCON 019F  
                                      _OSCTUNE 0098                       ??_EUSART_SetErrorHandler 004E  
                                      _SSPCON1 0215                                        _SSPCON2 0216  
                                      _SSPSTAT 0214                               ?_TMR1_WriteTimer 0070  
                                    _I2C_DO_RX 0000                                      _I2C_DO_TX 0000  
                             ??_LCD_Initialize 004C                     ??_CCP4_CallBack@main$F1842 0074  
                                   _ir_address 004A                                     _ir_command 0048  
                                    _LCDDATA10 07AA                                 _I2C_Initialize 070D  
                                      __ptext1 05E1                                        __ptext2 063E  
                                      __ptext3 073A                                        __ptext4 06EB  
                                      __ptext5 0703                                        __ptext6 0680  
                                      __ptext7 06F7                                        __ptext8 069A  
                                      __ptext9 070D                           __size_of_reverseBits 0037  
                                    _T1CONbits 0018                                        _ir_flag 0047  
                        _OSCILLATOR_Initialize 06F7                  __size_of_CCP4_DefaultCallBack 0001  
                                    _LCDRLbits 0795                                      _LCDPSbits 0792  
                     ??_PIN_MANAGER_Initialize 004C                     __size_of_SYSTEM_Initialize 0022  
                                      clrloop0 0717                           end_of_initialization 0026  
        __end_of_EUSART_SetOverrunErrorHandler 0722         __size_of_EUSART_SetOverrunErrorHandler 0006  
                _EUSART_SetOverrunErrorHandler 071C                              _EUSART_Initialize 0618  
                           ?_EUSART_Initialize 0070                                      _RCSTAbits 019D  
                       __end_of_I2C_Initialize 0716                          _ir_address_complement 0049  
                          ??_EUSART_Initialize 004E                               ??_WDT_Initialize 004C  
                        __end_of_LCD_Digit1Num 0587                          __end_of_LCD_Digit2Num 04B0  
                        __end_of_LCD_Digit3Num 03D9                          __end_of_LCD_Digit4Num 0206  
        CCP4_CallBack@main$F1838@capturedValue 0072                               LCD_Digit1Num@num 004E  
                             LCD_Digit2Num@num 004E                               LCD_Digit3Num@num 004E  
                             LCD_Digit4Num@num 004E                __size_of_EUSART_SetErrorHandler 0006  
            CCP4_CallBack@main$F1838@bit_count 007B                      __end_of_EUSART_Initialize 063E  
                                  _I2C_DO_IDLE 0000                                    _I2C_DO_RCEN 0000  
                                    _TXSTAbits 019E                       __size_of_CCP4_CaptureISR 0016  
            CCP4_DefaultCallBack@capturedValue 0072                       _I2C_DO_SEND_RESTART_READ 0000  
                            ?_CCP4_SetCallBack 004C                                ?_I2C_Initialize 0070  
                      _I2C_CallbackReturnReset 0000                             ??_CCP4_SetCallBack 004E  
                   _EUSART_DefaultErrorHandler 0000                         ?_OSCILLATOR_Initialize 0070  
                      __size_of_DAC_Initialize 0006                            start_initialization 001B  
                     __size_of_TMR0_Initialize 000A                __size_of_PIN_MANAGER_Initialize 001A  
                       _I2C_DO_RX_NACK_RESTART 0000                                  _LCDDATA10bits 07AA  
               ?_EUSART_SetOverrunErrorHandler 004C                       __size_of_TMR1_Initialize 000C  
                   _EUSART_FramingErrorHandler 0045                         _EUSART_SetErrorHandler 0728  
                     __size_of_CCP4_Initialize 0012                               _I2C_DO_SEND_STOP 0000  
                        CCP4_CaptureISR@module 0079                              _i2c_fsmStateTable 0660  
                        _I2C_DO_SEND_ADR_WRITE 0000                                    __pbssCOMMON 007B  
                                    ___latbits 0003                                  __pcstackBANK0 004C  
                   __size_of_EUSART_Initialize 0026                      _I2C_DO_SEND_RESTART_WRITE 0000  
                        _rd2RegCompleteHandler 0000                         _PIN_MANAGER_Initialize 0680  
                        _wr2RegCompleteHandler 0000                              ??_CCP4_CaptureISR 0078  
                    __end_of_i2c_fsmStateTable 0680                   ??_INTERRUPT_InterruptManager 007B  
                                     _LCDDATA0 07A0                                       _LCDDATA1 07A1  
                                     _LCDDATA3 07A3                                       _LCDDATA4 07A4  
                                     _LCDDATA6 07A6                                       _LCDDATA7 07A7  
                                     _LCDDATA9 07A9                              ??_TMR0_Initialize 004C  
       EUSART_SetErrorHandler@interruptHandler 004C                                      clear_ram0 0716  
                 __end_of_CCP4_DefaultCallBack 0743                                       _PIE1bits 0091  
                                     _PIE3bits 0093                              _eusartRxLastError 004B  
                     __size_of_TMR1_WriteTimer 0011            __size_of_INTERRUPT_InterruptManager 0015  
                                     _PIR1bits 0011                ??_EUSART_SetFramingErrorHandler 004E  
                                     _PIR2bits 0012                                       _PIR3bits 0013  
            _EUSART_DefaultOverrunErrorHandler 0000                                  ??_reverseBits 004C  
            __size_of_CCP4_CallBack@main$F1838 00FC                              ??_TMR1_Initialize 004C  
                    ?_CCP4_CallBack@main$F1840 0072                                 _DAC_Initialize 072E  
                      __size_of_FVR_Initialize 0004                              ??_CCP4_Initialize 004E  
                                    main@temp8 0053                                     _I2C_Status 0020  
                                   _EECON1bits 0195                               ??_I2C_Initialize 004C  
                      ??_OSCILLATOR_Initialize 004C                            _EUSART_ErrorHandler 0041  
                      __size_of_LCD_Initialize 0018                           _I2C_DO_SEND_ADR_READ 0000  
                       __end_of_DAC_Initialize 0734                            __end_of_reverseBits 0618  
                    __size_of_CCP4_SetCallBack 0006                                       __ptext10 073E  
                                     __ptext11 0618                                       __ptext20 03D9  
                                     __ptext12 071C                                       __ptext21 04B0  
                                     __ptext13 0722                                     _T1GCONbits 0019  
                                     __ptext14 0728                                       __ptext23 06B2  
                                     __ptext15 072E                                       __ptext24 0206  
                                     __ptext16 06C8                                       __ptext25 0742  
                                     __ptext17 0734                                       __ptext26 06DA  
                                     __ptext18 002A                                       __ptext19 0302  
                                   _LCDCONbits 0791                                     _LCDCSTbits 0794  
                                __size_of_main 005A                         __size_of_LCD_Digit1Num 00D7  
                       __size_of_LCD_Digit2Num 00D7                         __size_of_LCD_Digit3Num 00D7  
                       __size_of_LCD_Digit4Num 01DC                          _ir_command_complement 007C  
                      ?_EUSART_SetErrorHandler 004C  EUSART_SetOverrunErrorHandler@interruptHandler 004C  
                                     int$flags 007E             __end_of_INTERRUPT_InterruptManager 0019  
                   _INTERRUPT_InterruptManager 0004          __end_of_EUSART_SetFramingErrorHandler 0728  
       __size_of_EUSART_SetFramingErrorHandler 0006                  _EUSART_SetFramingErrorHandler 0722  
                              ?_DAC_Initialize 0070                              ??_TMR1_WriteTimer 0072  
                                   _INTCONbits 000B                           _CCP4_DefaultCallBack 0742  
                                   _FVRCONbits 0117                        __size_of_WDT_Initialize 0004  
                                     intlevel1 0000                                   reverseBits@b 004F  
                              _CCP4_CaptureISR 06B2                        ?_PIN_MANAGER_Initialize 0070  
               __end_of_EUSART_SetErrorHandler 072E                            _I2C_DO_SEND_RESTART 0000  
EUSART_SetFramingErrorHandler@interruptHandler 004C                                    _reverseBits 05E1  
                                __pstringtext1 0660                                 _FVR_Initialize 073E  
                                   _OPTION_REG 0095                                  _LCD_Digit1Num 04B0  
                                _LCD_Digit2Num 03D9                                  _LCD_Digit3Num 0302  
                                _LCD_Digit4Num 002A                          ?_CCP4_DefaultCallBack 0072  
                              _TMR0_Initialize 0703                                    _SSPCON1bits 0215  
                                  _SSPCON2bits 0216                 __end_of_PIN_MANAGER_Initialize 069A  
             __end_of_CCP4_CallBack@main$F1838 0302                                _TMR1_Initialize 06EB  
